
; 0000 L4f00 @1400 [exe]
* = $1400

1400: 00 00 00 00 00 00 00 00  DUNGEON_CHRSET  .BYTE $00,$00,$00,$00,$00,$00,$00,$00  ; ........
1408: 78 9c 3c 36 3e 66 66 c3   .BYTE $78,$9c,$3c,$36,$3e,$66,$66,$c3  ; x.<6>ff.
1410: ee 73 63 6e 63 63 63 de   .BYTE $ee,$73,$63,$6e,$63,$63,$63,$de  ; .scnccc.
1418: 3c 66 cc c0 c0 c0 e6 7c   .BYTE $3c,$66,$cc,$c0,$c0,$c0,$e6,$7c  ; <f.....|
1420: ee 73 63 63 63 63 63 de   .BYTE $ee,$73,$63,$63,$63,$63,$63,$de  ; .sccccc.
1428: fe 66 60 78 60 63 66 7c   .BYTE $fe,$66,$60,$78,$60,$63,$66,$7c  ; .f`x`cf|
1430: fe 66 60 78 60 60 60 60   .BYTE $fe,$66,$60,$78,$60,$60,$60,$60  ; .f`x````
1438: 3c 66 c6 c0 de c6 66 3c   .BYTE $3c,$66,$c6,$c0,$de,$c6,$66,$3c  ; <f....f<
1440: c6 c6 c6 ce fe e6 c6 c6   .BYTE $c6,$c6,$c6,$ce,$fe,$e6,$c6,$c6  ; ........
1448: 30 18 18 18 18 18 18 0c   .BYTE $30,$18,$18,$18,$18,$18,$18,$0c  ; 0.......
1450: 1e 0c 0c 0c 0c 1c 38 60   .BYTE $1e,$0c,$0c,$0c,$0c,$1c,$38,$60  ; ......8`
1458: c6 6c 6c 78 78 6c 6c c6   .BYTE $c6,$6c,$6c,$78,$78,$6c,$6c,$c6  ; .llxxll.
1460: e0 60 60 60 60 66 7e 78   .BYTE $e0,$60,$60,$60,$60,$66,$7e,$78  ; .````f~x
1468: c6 ee fe d6 c6 c6 c6 c6   .BYTE $c6,$ee,$fe,$d6,$c6,$c6,$c6,$c6  ; ........
1470: c6 c6 e6 f6 de ce c6 c6   .BYTE $c6,$c6,$e6,$f6,$de,$ce,$c6,$c6  ; ........
1478: 7c ce c6 c6 c6 c6 e6 7c   .BYTE $7c,$ce,$c6,$c6,$c6,$c6,$e6,$7c  ; |......|
1480: fc 66 66 66 6c 60 60 c0   .BYTE $fc,$66,$66,$66,$6c,$60,$60,$c0  ; .fffl``.
1488: 7c e6 c6 c6 c6 c6 ce 7f   .BYTE $7c,$e6,$c6,$c6,$c6,$c6,$ce,$7f  ; |......
1490: ee 73 66 6c 66 66 63 c3   .BYTE $ee,$73,$66,$6c,$66,$66,$63,$c3  ; .sflffc.
1498: 3a 66 60 3c 06 06 66 5c   .BYTE $3a,$66,$60,$3c,$06,$06,$66,$5c  ; :f`<..f\
14a0: fe 30 60 c0 c0 c2 c6 7c   .BYTE $fe,$30,$60,$c0,$c0,$c2,$c6,$7c  ; .0`....|
14a8: e6 66 66 66 66 66 6e 3f   .BYTE $e6,$66,$66,$66,$66,$66,$6e,$3f  ; .fffffn?
14b0: c3 66 66 66 66 66 3c 18   .BYTE $c3,$66,$66,$66,$66,$66,$3c,$18  ; .fffff<.
14b8: c3 c3 c3 d3 cb df 77 62   .BYTE $c3,$c3,$c3,$d3,$cb,$df,$77,$62  ; ......wb
14c0: c3 c3 66 3c 3c 66 c3 c3   .BYTE $c3,$c3,$66,$3c,$3c,$66,$c3,$c3  ; ..f<<f..
14c8: c3 66 66 3c 18 18 18 18   .BYTE $c3,$66,$66,$3c,$18,$18,$18,$18  ; .ff<....
14d0: 7e c6 0c 18 fe 60 c3 fe   .BYTE $7e,$c6,$0c,$18,$fe,$60,$c3,$fe  ; ~....`..
14d8: 00 00 00 00 00 18 18 00   .BYTE $00,$00,$00,$00,$00,$18,$18,$00  ; ........
14e0: 00 00 00 00 7e 00 00 00   .BYTE $00,$00,$00,$00,$7e,$00,$00,$00  ; ....~...
14e8: 00 18 18 18 00 00 00 00   .BYTE $00,$18,$18,$18,$00,$00,$00,$00  ; ........
14f0: 18 3c 3c 3c 18 18 00 18   .BYTE $18,$3c,$3c,$3c,$18,$18,$00,$18  ; .<<<....
14f8: 3c 66 66 0c 18 00 18 00   .BYTE $3c,$66,$66,$0c,$18,$00,$18,$00  ; <ff.....
1500: 00 00 00 00 00 00 00 00   .BYTE $00,$00,$00,$00,$00,$00,$00,$00  ; ........
1508: 18 3c 3c 3c 18 18 00 18   .BYTE $18,$3c,$3c,$3c,$18,$18,$00,$18  ; .<<<....
1510: 66 66 66 00 00 00 00 00   .BYTE $66,$66,$66,$00,$00,$00,$00,$00  ; fff.....
1518: 00 66 ff 66 66 ff 66 00   .BYTE $00,$66,$ff,$66,$66,$ff,$66,$00  ; .f.ff.f.
1520: 18 3e 60 3c 06 7c 18 00   .BYTE $18,$3e,$60,$3c,$06,$7c,$18,$00  ; .>`<.|..
1528: 00 66 6c 18 30 66 46 00   .BYTE $00,$66,$6c,$18,$30,$66,$46,$00  ; .fl.0fF.
1530: 1c 36 1c 38 6f 66 3b 00   .BYTE $1c,$36,$1c,$38,$6f,$66,$3b,$00  ; .6.8of;.
1538: 00 18 18 18 00 00 00 00   .BYTE $00,$18,$18,$18,$00,$00,$00,$00  ; ........
1540: 06 0e 1c 18 18 1c 0e 06   .BYTE $06,$0e,$1c,$18,$18,$1c,$0e,$06  ; ........
1548: 60 70 38 18 18 38 70 60   .BYTE $60,$70,$38,$18,$18,$38,$70,$60  ; `p8..8p`
1550: 00 66 3c ff 3c 66 00 00   .BYTE $00,$66,$3c,$ff,$3c,$66,$00,$00  ; .f<.<f..
1558: 00 18 18 7e 18 18 00 00   .BYTE $00,$18,$18,$7e,$18,$18,$00,$00  ; ...~....
1560: 00 00 00 00 00 18 18 30   .BYTE $00,$00,$00,$00,$00,$18,$18,$30  ; .......0
1568: 00 00 00 7e 00 00 00 00   .BYTE $00,$00,$00,$7e,$00,$00,$00,$00  ; ...~....
1570: 00 00 00 00 00 18 18 00   .BYTE $00,$00,$00,$00,$00,$18,$18,$00  ; ........
1578: 03 06 0c 18 30 60 40 00   .BYTE $03,$06,$0c,$18,$30,$60,$40,$00  ; ....0`@.
1580: 7c ce c6 c6 c6 e6 7c 00   .BYTE $7c,$ce,$c6,$c6,$c6,$e6,$7c,$00  ; |.....|.
1588: 38 38 18 18 18 18 18 00   .BYTE $38,$38,$18,$18,$18,$18,$18,$00  ; 88......
1590: 7c e6 0c 18 30 60 fe 00   .BYTE $7c,$e6,$0c,$18,$30,$60,$fe,$00  ; |...0`..
1598: 7e 0c 18 0c 06 66 3c 00   .BYTE $7e,$0c,$18,$0c,$06,$66,$3c,$00  ; ~....f<.
15a0: 0c 1c 3c 6c cc fe 0c 00   .BYTE $0c,$1c,$3c,$6c,$cc,$fe,$0c,$00  ; ..<l....
15a8: 7e 60 7c 06 06 66 3c 00   .BYTE $7e,$60,$7c,$06,$06,$66,$3c,$00  ; ~`|..f<.
15b0: 7c c6 c0 fc ce e6 7c 00   .BYTE $7c,$c6,$c0,$fc,$ce,$e6,$7c,$00  ; |.....|.
15b8: 7e 06 0c 18 30 30 30 00   .BYTE $7e,$06,$0c,$18,$30,$30,$30,$00  ; ~...000.
15c0: 7c ce e6 7c ce e6 7c 00   .BYTE $7c,$ce,$e6,$7c,$ce,$e6,$7c,$00  ; |..|..|.
15c8: 7c ce c6 e6 7e 0c 18 30   .BYTE $7c,$ce,$c6,$e6,$7e,$0c,$18,$30  ; |...~..0
15d0: 00 38 38 00 00 38 38 00   .BYTE $00,$38,$38,$00,$00,$38,$38,$00  ; .88..88.
15d8: 00 00 18 18 00 18 18 30   .BYTE $00,$00,$18,$18,$00,$18,$18,$30  ; .......0
15e0: 06 0c 18 30 18 0c 06 00   .BYTE $06,$0c,$18,$30,$18,$0c,$06,$00  ; ...0....
15e8: 00 00 7e 00 00 7e 00 00   .BYTE $00,$00,$7e,$00,$00,$7e,$00,$00  ; ..~..~..
15f0: 60 30 18 0c 18 30 60 00   .BYTE $60,$30,$18,$0c,$18,$30,$60,$00  ; `0...0`.
15f8: 3c 66 66 0c 18 00 18 00   .BYTE $3c,$66,$66,$0c,$18,$00,$18,$00  ; <ff.....
1600: 00 3c 66 6e 6e 60 3e 00   .BYTE $00,$3c,$66,$6e,$6e,$60,$3e,$00  ; .<fnn`>.
1608: 78 9c 3c 36 3e 66 66 c3   .BYTE $78,$9c,$3c,$36,$3e,$66,$66,$c3  ; x.<6>ff.
1610: ee 73 63 6e 63 63 63 de   .BYTE $ee,$73,$63,$6e,$63,$63,$63,$de  ; .scnccc.
1618: 3c 66 cc c0 c0 c0 e6 7c   .BYTE $3c,$66,$cc,$c0,$c0,$c0,$e6,$7c  ; <f.....|
1620: ee 73 63 63 63 63 63 de   .BYTE $ee,$73,$63,$63,$63,$63,$63,$de  ; .sccccc.
1628: fe 66 60 78 60 63 66 7c   .BYTE $fe,$66,$60,$78,$60,$63,$66,$7c  ; .f`x`cf|
1630: fe 66 60 78 60 60 60 60   .BYTE $fe,$66,$60,$78,$60,$60,$60,$60  ; .f`x````
1638: 3c 66 c6 c0 de c6 66 3c   .BYTE $3c,$66,$c6,$c0,$de,$c6,$66,$3c  ; <f....f<
1640: c6 c6 c6 ce fe e6 c6 c6   .BYTE $c6,$c6,$c6,$ce,$fe,$e6,$c6,$c6  ; ........
1648: 30 18 18 18 18 18 18 0c   .BYTE $30,$18,$18,$18,$18,$18,$18,$0c  ; 0.......
1650: 1e 0c 0c 0c 0c 1c 38 60   .BYTE $1e,$0c,$0c,$0c,$0c,$1c,$38,$60  ; ......8`
1658: c6 6c 6c 78 78 6c 6c c6   .BYTE $c6,$6c,$6c,$78,$78,$6c,$6c,$c6  ; .llxxll.
1660: e0 60 60 60 60 66 7e 78   .BYTE $e0,$60,$60,$60,$60,$66,$7e,$78  ; .````f~x
1668: c6 ee fe d6 c6 c6 c6 c6   .BYTE $c6,$ee,$fe,$d6,$c6,$c6,$c6,$c6  ; ........
1670: c6 c6 e6 f6 de ce c6 c6   .BYTE $c6,$c6,$e6,$f6,$de,$ce,$c6,$c6  ; ........
1678: 7c ce c6 c6 c6 c6 e6 7c   .BYTE $7c,$ce,$c6,$c6,$c6,$c6,$e6,$7c  ; |......|
1680: fc 66 66 66 6c 60 60 c0   .BYTE $fc,$66,$66,$66,$6c,$60,$60,$c0  ; .fffl``.
1688: 7c e6 c6 c6 c6 c6 ce 7f   .BYTE $7c,$e6,$c6,$c6,$c6,$c6,$ce,$7f  ; |......
1690: ee 73 66 6c 66 66 63 c3   .BYTE $ee,$73,$66,$6c,$66,$66,$63,$c3  ; .sflffc.
1698: 3a 66 60 3c 06 06 66 5c   .BYTE $3a,$66,$60,$3c,$06,$06,$66,$5c  ; :f`<..f\
16a0: fe 30 60 c0 c0 c2 c6 7c   .BYTE $fe,$30,$60,$c0,$c0,$c2,$c6,$7c  ; .0`....|
16a8: e6 66 66 66 66 66 6e 3f   .BYTE $e6,$66,$66,$66,$66,$66,$6e,$3f  ; .fffffn?
16b0: c3 66 66 66 66 66 3c 18   .BYTE $c3,$66,$66,$66,$66,$66,$3c,$18  ; .fffff<.
16b8: c3 c3 c3 d3 cb df 77 62   .BYTE $c3,$c3,$c3,$d3,$cb,$df,$77,$62  ; ......wb
16c0: c3 c3 66 3c 3c 66 c3 c3   .BYTE $c3,$c3,$66,$3c,$3c,$66,$c3,$c3  ; ..f<<f..
16c8: c3 66 66 3c 18 18 18 18   .BYTE $c3,$66,$66,$3c,$18,$18,$18,$18  ; .ff<....
16d0: 7e c6 0c 18 fe 60 c3 fe   .BYTE $7e,$c6,$0c,$18,$fe,$60,$c3,$fe  ; ~....`..
16d8: 1e 18 18 18 18 18 18 1e   .BYTE $1e,$18,$18,$18,$18,$18,$18,$1e  ; ........
16e0: 00 40 60 30 18 0c 06 00   .BYTE $00,$40,$60,$30,$18,$0c,$06,$00  ; .@`0....
16e8: 78 18 18 18 18 18 18 78   .BYTE $78,$18,$18,$18,$18,$18,$18,$78  ; x......x
16f0: 00 08 1c 36 63 00 00 00   .BYTE $00,$08,$1c,$36,$63,$00,$00,$00  ; ...6c...
16f8: 00 00 00 00 00 00 00 ff   .BYTE $00,$00,$00,$00,$00,$00,$00,$ff  ; ........
1700: 7e 7e 7e 7e 7e 7e 7e 7e   .BYTE $7e,$7e,$7e,$7e,$7e,$7e,$7e,$7e  ; ~~~~~~~~
1708: 00 00 3e 66 66 66 3b 00   .BYTE $00,$00,$3e,$66,$66,$66,$3b,$00  ; ..>fff;.
1710: e0 60 60 7c 66 66 7c 00   .BYTE $e0,$60,$60,$7c,$66,$66,$7c,$00  ; .``|ff|.
1718: 00 00 3c 66 60 66 3c 00   .BYTE $00,$00,$3c,$66,$60,$66,$3c,$00  ; ..<f`f<.
1720: 0c 06 06 3e 66 66 3b 00   .BYTE $0c,$06,$06,$3e,$66,$66,$3b,$00  ; ...>ff;.
1728: 00 00 3c 66 7e 60 3e 00   .BYTE $00,$00,$3c,$66,$7e,$60,$3e,$00  ; ..<f~`>.
1730: 0e 18 18 18 3e 18 18 00   .BYTE $0e,$18,$18,$18,$3e,$18,$18,$00  ; ....>...
1738: 00 06 7c cc cc 78 c2 7c   .BYTE $00,$06,$7c,$cc,$cc,$78,$c2,$7c  ; ..|..x.|
1740: c0 60 60 6c 76 66 66 00   .BYTE $c0,$60,$60,$6c,$76,$66,$66,$00  ; .``lvff.
1748: 30 00 18 0c 0c 0c 0c 00   .BYTE $30,$00,$18,$0c,$0c,$0c,$0c,$00  ; 0.......
1750: 0c 00 0c 0c 0c 0c 0c 38   .BYTE $0c,$00,$0c,$0c,$0c,$0c,$0c,$38  ; .......8
1758: c0 60 66 6c 78 6c e6 00   .BYTE $c0,$60,$66,$6c,$78,$6c,$e6,$00  ; .`flxl..
1760: 30 18 18 18 18 18 0c 00   .BYTE $30,$18,$18,$18,$18,$18,$0c,$00  ; 0.......
1768: 00 c0 66 7e 7e 6b 63 00   .BYTE $00,$c0,$66,$7e,$7e,$6b,$63,$00  ; ..f~~kc.
1770: 00 c0 7c 66 66 66 63 00   .BYTE $00,$c0,$7c,$66,$66,$66,$63,$00  ; ..|fffc.
1778: 00 00 3c 6e 66 76 3c 00   .BYTE $00,$00,$3c,$6e,$66,$76,$3c,$00  ; ..<nfv<.
1780: 00 c0 7c 66 66 7c 60 e0   .BYTE $00,$c0,$7c,$66,$66,$7c,$60,$e0  ; ..|ff|`.
1788: 00 00 3b 66 66 3e 06 07   .BYTE $00,$00,$3b,$66,$66,$3e,$06,$07  ; ..;ff>..
1790: 00 c0 7c 76 60 60 60 00   .BYTE $00,$c0,$7c,$76,$60,$60,$60,$00  ; ..|v```.
1798: 00 00 3e 60 3c 06 7c 00   .BYTE $00,$00,$3e,$60,$3c,$06,$7c,$00  ; ..>`<.|.
17a0: 00 30 7e 30 30 30 36 1c   .BYTE $00,$30,$7e,$30,$30,$30,$36,$1c  ; .0~0006.
17a8: 00 00 e6 66 66 6e 3b 00   .BYTE $00,$00,$e6,$66,$66,$6e,$3b,$00  ; ...ffn;.
17b0: 00 00 e6 66 66 3c 18 00   .BYTE $00,$00,$e6,$66,$66,$3c,$18,$00  ; ...ff<..
17b8: 00 00 e3 6b 7f 3e 36 00   .BYTE $00,$00,$e3,$6b,$7f,$3e,$36,$00  ; ...k>6.
17c0: 00 03 66 3c 18 3c 66 c0   .BYTE $00,$03,$66,$3c,$18,$3c,$66,$c0  ; ..f<.<f.
17c8: 00 00 e6 66 66 3e cc 78   .BYTE $00,$00,$e6,$66,$66,$3e,$cc,$78  ; ...ff>.x
17d0: 00 00 7e 0c 7e 31 7e 00   .BYTE $00,$00,$7e,$0c,$7e,$31,$7e,$00  ; ..~.~1~.
17d8: 18 18 18 ff ff 18 18 18   .BYTE $18,$18,$18,$ff,$ff,$18,$18,$18  ; ........
17e0: 0c 0c d8 fc 3f 1b 30 30   .BYTE $0c,$0c,$d8,$fc,$3f,$1b,$30,$30  ; ....?.00
17e8: 42 e7 7e 3c 3c 7e e7 42   .BYTE $42,$e7,$7e,$3c,$3c,$7e,$e7,$42  ; B.~<<~.B
17f0: 30 30 1b 3f fc d8 0c 0c   .BYTE $30,$30,$1b,$3f,$fc,$d8,$0c,$0c  ; 00.?....
17f8: 08 18 30 7c 18 30 60 40   .BYTE $08,$18,$30,$7c,$18,$30,$60,$40  ; ..0|.0`@

1800: 4c 79 29  JMP_SUB_1800    JMP sub_2979         ;
1803: 4c 80 2f  JMP_SUB_1803    JMP loc_2f80         ;
1806: 4c f3 2f  JMP_SUB_1806    JMP loc_2ff3         ;
1809: 4c e3 30  JMP_SUB_1809    JMP loc_30e3         ;
180c: 4c 83 31  JMP_SUB_180C    JMP loc_3183         ;
180f: 4c 0d 1a  JMP_SUB_180F    JMP DISPLAY_SUB_1a0d ;
1812: 4c 84 1c  JMP_SUB_1812    JMP sub_1c84         ;
1815: 4c 88 1c  JMP_SUB_1815    JMP sub_1c88         ;
1818: 4c 8c 1c  JMP_SUB_1818    JMP sub_1c8c         ;
181b: 4c 2c 1c  JMP_SUB_181B    JMP sub_1c2c         ;
181e: 4c 43 26  JMP_SUB_181E    JMP sub_2643         ;
1821: 4c 2f 26  JMP_SUB_1821    JMP sub_262f         ;
1824: 4c 5b 27  JMP_SUB_1824    JMP sub_275b         ;
1827: 4c 5d 24  JMP_SUB_1827    JMP sub_245d         ;
182a: 4c a1 28  JMP_SUB_182A    JMP sub_28a1         ;
182d: 4c 8e 24  JMP_SUB_182D    JMP sub_248e         ;
1830: 4c c6 24  JMP_SUB_1830    JMP loc_24c6         ;
1833: 4c 94 24  JMP_SUB_1833    JMP sub_2494         ;
1836: 4c 61 3c  JMP_SUB_1836    JMP loc_3c61         ;
1839: 4c 41 2a  JMP_SUB_1839    JMP sub_2a41         ;
183c: 4c b0 2b  JMP_SUB_183C    JMP sub_2bb0         ;
183f: 4c a5 2b  JMP_SUB_183F    JMP sub_2ba5         ;
1842: 4c ad 2c  JMP_SUB_1842    JMP sub_2cad         ;
1845: 4c 27 3c  JMP_SUB_1845    JMP sub_3c27         ;
1848: 4c 2d 3c  JMP_SUB_1848    JMP sub_3c2d         ;
184b: 4c a5 3c  JMP_SUB_184B    JMP sub_3ca5         ;
184e: 4c c2 3c  JMP_SUB_184E    JMP sub_3cc2         ;
1851: 4c 5c 3c  JMP_SUB_1851    JMP sub_3c5c         ;
1854: 4c 8f 2d  JMP_SUB_1854    JMP loc_2d8f         ;
1857: 4c 6f 2c  JMP_SUB_1857    JMP loc_2c6f         ;
185a: 4c fc 2b  JMP_SUB_185A    JMP sub_2bfc         ;
185d: 4c 9b 2c  JMP_SUB_185D    JMP loc_2c9b         ;
1860: 4c ab 2d  JMP_SUB_1860    JMP sub_2dab         ;
1863: 4c e3 2d  JMP_SUB_1863    JMP sub_2de3         ;
1866: 4c 0d 2e  JMP_SUB_1866    JMP sub_2e0d         ;
1869: 4c 31 2e  JMP_SUB_1869    JMP loc_2e31         ;
186c: 4c 6b 2e  JMP_SUB_186C    JMP loc_2e6b         ;
186f: 4c 69 2e  JMP_SUB_186F    JMP sub_2e69         ;
1872: 4c 66 2e  JMP_SUB_1872    JMP sub_2e66         ;
1875: 4c 45 2e  JMP_SUB_1875    JMP loc_2e45         ;
1878: 4c 43 2e  JMP_SUB_1878    JMP loc_2e43         ;
187b: 4c 40 2e  JMP_SUB_187B    JMP loc_2e40         ;
187e: 4c 9e 2e  JMP_SUB_187E    JMP loc_2e9e         ;
1881: 4c c2 2c  JMP_SUB_1881    JMP sub_2cc2         ;
1884: 4c 4d 4b  JMP_SUB_1884    JMP loc_4b4d         ;
1887: 4c 74 4b  JMP_SUB_1887    JMP sub_4b74         ;
188a: 4c c9 4a  JMP_SUB_188A    JMP loc_4ac9         ;
188d: 4c 06 4e  JMP_SUB_188D    JMP sub_4e06         ;
1890: 4c b0 49  JMP_SUB_1890    JMP loc_49b0         ;
1893: 4c b7 55  JMP_SUB_1893    JMP loc_55b7         ;
1896: 4c c4 4e  JMP_SUB_1896    JMP sub_4ec4         ;
1899: 4c 6b 2b  JMP_SUB_1899    JMP loc_2b6b         ;
189c: 4c 71 54  JMP_SUB_189C    JMP sub_5471         ;
189f: 4c 5f 37  JMP_SUB_189F    JMP loc_375f         ;
18a2: 4c 47 2b  JMP_SUB_18A2    JMP sub_2b47         ;
18a5: 4c 8b 40  JMP_SUB_18A5    JMP sub_408b         ;
18a8: 4c 71 37  JMP_SUB_18A8    JMP loc_3771         ;
18ab: 4c b8 5b  JMP_SUB_18AB    JMP loc_5bb8         ;
18ae: 4c a0 2a  JMP_SUB_18AE    JMP loc_2aa0         ;
18b1: 4c 92 54  JMP_SUB_18B1    JMP loc_5492         ;
18b4: 4c c6 2e  JMP_SUB_18B4    JMP loc_2ec6         ;

18b7: 00        dat_18b7        .BYTE $00            ;
18b8: 00        UNK_1C19OFS_18B8  .BYTE $00          ; Offset to values at 1C19 (COLPF2 value table?)
18b9: 00        CUR_DLIST_NUM   .BYTE $00            ; Currently active DLIST number/mode (0..2)
18ba: 00        CUR_COLPF0      .BYTE $00            ; Value assigned to COLPF0 (playfield 0 color) during display rendering
18bb: 00        CUR_COLPF1      .BYTE $00            ; Value assigned to COLPF1 during display rendering
18bc: 00        CUR_COLPF2      .BYTE $00            ; Value assigned to COLPF2 during display rendering
18bd: 00        CUR_COLBK       .BYTE $00            ; Value assigned to COLBK during display rendering
18be: 00        COLBK_SET_18BE  .BYTE $00            ; Value assigned to COLBK during display rendering
18bf: 00 00     CUR_COLPF3  .BYTE $00,$00       ; Value assigned to COLPF3 during display rendering
18c1: 00 00 00 00 00 00 00 00  UNK_TBL_18C1  .BYTE $00,$00,$00,$00,$00,$00,$00,$00  ; ........
18c9: 00                        .BYTE $00
18ca: 00        dat_18ca        .BYTE $00
18cb: 00 00 00 00 00 00         .BYTE $00,$00,$00,$00,$00,$00  ; ........
18d1: 00 00 00 00 80 80 80 80   .BYTE $00,$00,$00,$00,$80,$80,$80,$80  ; ........
18d9: 80 80 80 80 80 80 80 80   .BYTE $80,$80,$80,$80,$80,$80,$80,$80  ; ........
18e1: 80 80 80 80 80 80 80 80   .BYTE $80,$80,$80,$80,$80,$80,$80,$80  ; ........
18e9: 80 80 80 80 80 80 80 80   .BYTE $80,$80,$80,$80,$80,$80,$80,$80  ; ........
18f1: 80 80 80 80 80 80 80 80   .BYTE $80,$80,$80,$80,$80,$80,$80,$80  ; ........
18f9: 80 80 80 80 00 00 00 00   .BYTE $80,$80,$80,$80,$00,$00,$00,$00  ; ........
1901: 00        dat_1901_L      .BYTE $00            ;
1902: 00 00 00 00 00  dat_1902_H  .BYTE $00,$00,$00,$00,$00 ;
1907: 00 00     dat_1907        .BYTE $00,$00        ;
1909: 00 00     dat_1909        .BYTE $00,$00        ;
190b: 00        dat_190b_L      .BYTE $00            ;
190c: 00        dat_190c_H      .BYTE $00            ;
190d: 00                        .BYTE $00            ;
190e: 00        dat_190e        .BYTE $00            ;
190f: 00 00 00  dat_190f        .BYTE $00,$00,$00    ;
1912: 00 80 80 80 80 80 80 80  ZONE_ID  .BYTE $00,$80,$80,$80,$80,$80,$80,$80  ; ........
191a: 80 80 80 80 80 80 80 80   .BYTE $80,$80,$80,$80,$80,$80,$80,$80  ; ........
1922: 80 80 80 80 80 80 80 80   .BYTE $80,$80,$80,$80,$80,$80,$80,$80  ; ........
192a: 80 80 80 80 80 80 80 80  UNK_BYTE_192A  .BYTE $80,$80,$80,$80,$80,$80,$80,$80  ; ........
1932: 80                        .BYTE $80            ; .
1933: 00 00     dat_1933        .BYTE $00,$00        ; ..
1935: 00 00 00  dat_1935        .BYTE $00,$00,$00    ; ...
1938: 00        UNK_BYTE_1938   .BYTE $00            ; .
1939: 00 ff ff ff ff ff ff ff  UNK_BYTE_1939  .BYTE $00,$ff,$ff,$ff,$ff,$ff,$ff,$ff  ; ........
1941: ff ff ff ff ff 00 00 00   .BYTE $ff,$ff,$ff,$ff,$ff,$00,$00,$00  ; ........
1949: 00 00                     .BYTE $00,$00        ; ..
194b: 00        ZONE_TEXTURE_SET  .BYTE $00          ; .
194c: 00        ZONE_B_BYTE     .BYTE $00            ; .
194d: 00        ZONE_C_BF_LITE  .BYTE $00            ; .
194e: 00        ZONE_WALL_CLR0  .BYTE $00            ; .
194f: 00        ZONE_WALL_CLR1  .BYTE $00            ; .
1950: 00        ZONE_WALL_CLR2  .BYTE $00            ; .
1951: 00        ZONE_CEILING_CLR  .BYTE $00          ; .
1952: 00        ZONE_FLOOR_CLR  .BYTE $00            ; .
1953: 80 00 00  ZONE_I_BYTE     .BYTE $80,$00,$00    ; ...
1956: 00 00     UNK_BYTE_COUNTER  .BYTE $00,$00      ; ..
1958: 00        UNK_BYTE_1958   .BYTE $00            ; .
1959: 00        UNK_BYTE_1959   .BYTE $00            ; .
195a: 00 00 00  TELEPORT_INDEX  .BYTE $00,$00,$00    ; ...
195d: 00        UNK_BYTE_195D   .BYTE $00            ;
195e: 00        dat_195e        .BYTE $00            ;

195f: 00        UNK_BYTE_195F   .BYTE $00            ; .
1960: 00 00 00 00 00 00 00 00  UNK_BYTE_1960  .BYTE $00,$00,$00,$00,$00,$00,$00,$00  ; ........
1968: 00 00     UNK_BYTE_1968   .BYTE $00,$00        ; ..
196a: 00 00 00 00 00 00 00 00  UNK_BYTE_196A  .BYTE $00,$00,$00,$00,$00,$00,$00,$00  ; ........
1972: 00 00                     .BYTE $00,$00        ; ..
1974: 00        UNK_BYTE_1974   .BYTE $00            ; .
1975: 00        UNK_BYTE_1975   .BYTE $00            ;
1976: 00        dat_1976        .BYTE $00            ;

1977: 00        cont_addr_1977_L  .BYTE $00        ; .
1978: 00 00 00 00 80 80 80 80  UNK_MEMREF_HI_1978  .BYTE $00,$00,$00,$00,$80,$80,$80,$80  ; ........
1980: 80 80 80 80 80 80 80 80   .BYTE $80,$80,$80,$80,$80,$80,$80,$80  ; ........
1988: 80 80 80 80 80 80 80 80   .BYTE $80,$80,$80,$80,$80,$80,$80,$80  ; ........
1990: 80 80 80 80 80 80 80 80   .BYTE $80,$80,$80,$80,$80,$80,$80,$80  ; ........
1998: 80 80 80 80               .BYTE $80,$80,$80,$80                  ; ....
199c: 00        dat_199c        .BYTE $00                              ; .

199d: 70 70 30 42 00 04 02 02  DLIST_199d  .BYTE $70,$70,$30,$42,$00,$04,$02,$02 ; pp0B....
19a5: 02 02 02 02 02 02 02 02   .BYTE $02,$02,$02,$02,$02,$02,$02,$02  ; ........
19ad: 02 02 02 02 02 02 02 02   .BYTE $02,$02,$02,$02,$02,$02,$02,$02  ; ........
19b5: 02 02 02 02 02 02 41 9d   .BYTE $02,$02,$02,$02,$02,$02,$41,$9d  ; ......A.
19bd: 19                        .BYTE $19                              ; .
19be: 70 70 30 42 00 04 80 02  DLIST_19be  .BYTE $70,$70,$30,$42,$00,$04,$80,$02 ; pp0B....
19c6: 80 02 80 02 80 02 02 80   .BYTE $80,$02,$80,$02,$80,$02,$02,$80  ; ........
19ce: 44 f0 04 04 84 84 04 84   .BYTE $44,$f0,$04,$04,$84,$84,$04,$84  ; D.......
19d6: 04 04 84 00 00 42 58 06   .BYTE $04,$04,$84,$00,$00,$42,$58,$06  ; .....BX.
19de: 00 02 00 02 00 02 00 02   .BYTE $00,$02,$00,$02,$00,$02,$00,$02  ; ........
19e6: 00 02 00 02 00 02 41 be   .BYTE $00,$02,$00,$02,$00,$02,$41,$be  ; ......A.
19ee: 19                        .BYTE $19                              ; .
19ef: 19 19 19  TBL_DLISTH      .BYTE $19,$19,$19    ; Table of MSB for DLIST address
19f2: 9d be be  TBL_DLISTL      .BYTE $9d,$be,$be    ; Table of LSB for DLIST address
19f5: 70 70 70 70 70            .BYTE $70,$70,$70,$70,$70  ; ppppp
19fa: 70 70 70 70 70 70 70 70   .BYTE $70,$70,$70,$70,$70,$70,$70,$70  ; pppppppp
1a02: 70 70 42 7c 19 41 f5 19   .BYTE $70,$70,$42,$7c,$19,$41,$f5,$19  ; ppB|.A..
1a0a: 41 0a 1a                 DLIST_1a0a  .BYTE $41,$0a,$1a    ; A..

; Parameters:
;   A = Index (0..2) into several tables
;        - TBL_DLISTH + A -> CUR_DLISTH ($255)
;        - TBL_DLISTL + A -> CUR_DLISTL ($254)
;        - UNK_BYTE_TBL_1C21 + A -> Y, 0 -> UNK_BYTE_04c8 + Y
1a0d: aa        DISPLAY_SUB_1a0d  TAX                ; Set X = A
1a0e: 8d b9 18                  STA CUR_DLIST_NUM    ; Save off value of A
1a11: a9 00                     LDA #$00             ; Set A = 0
1a13: a0 03                     LDY #$03             ; Set Y = 3
1a15: 8c 53 02                  STY dat_0253         ; Store 3 into $0253
1a18: 99 00 d0  loc_1a18        STA HPOSP0,Y         ; Zero out each
1a1b: 88                        DEY                  ;     of the HPOSP0/1/2/3
1a1c: 10 fa                     BPL loc_1a18         ;     registers
1a1e: 20 54 24                  JSR WAIT_FOR_VBLK_A  ; Wait for next VBLANK
1a21: bd ef 19                  LDA TBL_DLISTH,X     ; Set CUR_DLISTH = $19,$19,$19
1a24: 8d 55 02                  STA CUR_DLISTH       ;
1a27: bd f2 19                  LDA TBL_DLISTL,X     ; Set CUR_DLISTL = $9d,$be,$be
1a2a: 8d 54 02                  STA CUR_DLISTL       ;
1a2d: bc 21 1c                  LDY UNK_BYTE_TBL_1C21,X  ; Set Y = 00, $27 (39), $13 (19) : (add 1 for # of iterations)
1a30: a9 00                     LDA #$00             ; Set Y+1 bytes
1a32: 99 c8 04  loc_1a32        STA UNK_BYTE_04c8,Y  ;  starting @ $4c8 to 0
1a35: 88                        DEY                  ; Loop until Y underflows
1a36: 10 fa                     BPL loc_1a32         ;     (sign bit set) - Either 1, 40 or 20 iterations
1a38: bd 41 1a                  LDA TBL_NXT_DSUBH,X  ; Load the address
1a3b: 48                        PHA                  ;     to continue at
1a3c: bd 44 1a                  LDA TBL_NXT_DSUBL,X  ;     onto the stack
1a3f: 48                        PHA                  ;     from the TBL_NXT_DSUBH/L tables
1a40: 60                        RTS                  ; Indirectly jump to continuation address loaded above
                                                     ;     0 = $1A46 + 1 = $1a47 (DISPLAY_SUB_1a47)
                                                     ;     1 = $1A64 + 1 = $1a65 (DISPLAY_SUB_1a65)
                                                     ;     2 = $1B18 + 1 = $1b19 (DO_VDSLST_1b2f)
1a41: 1a 1a 1b  TBL_NXT_DSUBH   .BYTE $1a,$1a,$1b    ; Table of MSB for continuation address - 1
1a44: 46 64 18  TBL_NXT_DSUBL   .BYTE $46,$64,$18    ; Table of LSB for continuation address - 1

; Indirectly invoked from DISPLAY_SUB_1a0d
1a47: a9 55     DISPLAY_SUB_1a47  LDA #$55           ; Set LSB of VDSLST
1a49: 8d 00 02                  STA VDSLST           ;     (display list interrupt vector)
1a4c: 8d 48 02                  STA CUR_VDSLSTL      ;     and CUR_VDSLSTL ($0248) to $55
1a4f: a9 1b                     LDA #$1b             ; Set MSB of VDSLST
1a51: 8d 01 02                  STA VDSLST+1         ;     and CUR_VDSLSTH ($0249)
1a54: 8d 49 02                  STA CUR_VDSLSTH      ;     to $1b (final addr = $1b55 [IRQ_VDSLST_1b55])
1a57: a2 07                     LDX #$07             ; Zero out all of
1a59: a9 00                     LDA #$00             ;     the HPOSP0/1/2/3
1a5b: 9d 00 d0  loc_1a5b        STA HPOSP0,X         ;     and HPOSM0/1/2/3
1a5e: ca                        DEX                  ;     registers
1a5f: 10 fa                     BPL loc_1a5b         ; Loop until sign bit set
1a61: 8d 53 02                  STA dat_0253         ; Set $0253 = 0
1a64: 60                        RTS                  ; Return to caller

; Indirectly invoked from DISPLAY_SUB_1a0d
1a65: a9 2f     DISPLAY_SUB_1a65  LDA #$2f           ; Set LSB of VDSLST
1a67: 8d 00 02                  STA VDSLST           ;     (display list interrupt vector)
1a6a: 8d 48 02                  STA CUR_VDSLSTL      ;     and CUR_VDSLSTL ($0248) to $2f
1a6d: a9 1b                     LDA #$1b             ; Set MSB of VDSLST
1a6f: 8d 01 02                  STA VDSLST+1         ;     and CUR_VDSLSTH ($0249)
1a72: 8d 49 02                  STA CUR_VDSLSTH      ;     to $1b (final addr = $1b2f [DO_VDSLST_1b2f])
1a75: a9 56                     LDA #$56             ; Set VDSLST_A_LO
1a77: 8d 4a 02                  STA VDSLST_A_LO      ;     and
1a7a: a9 1b                     LDA #$1b             ;     VDSLST_A_HI
1a7c: 8d 4b 02                  STA VDSLST_A_HI      ;     to addr = $1b56 [IRQ_VDSLST_1b56]
1a7f: a9 c0                     LDA #$c0             ; Enable the Display List Interrupt (DLI)
1a81: 8d 0e d4                  STA NMIEN            ;     and Vertical Blank Interrupt (VBI)
1a84: a9 00                     LDA #$00             ;
1a86: 8d b8 18                  STA UNK_1C19OFS_18B8 ;
1a89: a9 34                     LDA #$34             ; Set color priorities
1a8b: 8d 1b d0                  STA PRIOR            ;    $04: PF0 > PF1 > PF2 > PF3 > P0 > P1 > P2 > P3 > BG
                                                     ;    $10: Enable P5
                                                     ;    $20: Overlap of P0, P1, P2, P3 gives 3rd color (OR colors together)
1a8e: a2 03                     LDX #$03             ; Set P0 and P1
1a90: 8e 08 d0                  STX SIZEP0           ;     size to quadruple
1a93: 8e 09 d0                  STX SIZEP1           ;     width (24px)
1a96: bd 24 1c  loc_1a96        LDA TBL_HPOSM,X      ; Assign each of the
1a99: 9d 04 d0                  STA HPOSM0,X         ;     horizontal missile and
1a9c: bd 28 1c                  LDA TBL_HPOSP,X      ;     player positions to the
1a9f: 9d 00 d0                  STA HPOSP0,X         ;     values from the TBL_HPOSM
1aa2: a9 00                     LDA #$00             ;     and TBL_HPOSP tables
1aa4: 9d 0d d0                  STA GRAFP0,X         ; Set GRAFP0/1/2/3 to 0
1aa7: 9d 12 d0                  STA COLPM0,X         ; Set COLPM0/1/2/3 to 0
1aaa: ca                        DEX                  ; Subtract one from X
1aab: 10 e9                     BPL loc_1a96         ;     and repeat while X >= 0
1aad: 8d 1d d0                  STA GRACTL           ; Set GRCTL = 0 : Turn off players and missiles
1ab0: 8d 19 d0                  STA COLPF3           ; Set COLPF3 = 0 : black
1ab3: 8e 11 d0                  STX GRAFM            ; Set GRAFM = 0 : Missiles won't draw anything
1ab6: 8e 0c d0                  STX SIZEM            ; Set SIZEM = 0 : Set normal missile size
1ab9: a2 05                     LDX #$05             ; Zero out
1abb: 9d ba 18  loc_1abb        STA CUR_COLPF0,X     ;     the six color params
1abe: ca                        DEX                  ;
1abf: 10 fa                     BPL loc_1abb         ;
1ac1: 20 09 1c                  JSR sub_1c09         ;
1ac4: a9 f0                     LDA #$f0             ;
1ac6: 85 07                     STA dat_0007_L       ;
1ac8: a9 04                     LDA #$04             ;
1aca: 85 08                     STA dat_0007_H       ;
1acc: a9 0d                     LDA #$0d             ;
1ace: 85 09                     STA dat_0009_L       ;
1ad0: a9 05                     LDA #$05             ;
1ad2: 85 0a                     STA dat_0009_H       ;
1ad4: a2 09                     LDX #$09             ;
1ad6: a0 0a     loc_1ad6        LDY #$0a             ;
1ad8: b1 07     loc_1ad8        LDA (dat_0007_L),Y   ;
1ada: 09 80                     ORA #$80             ;
1adc: 91 07                     STA (dat_0007_L),Y   ;
1ade: b1 09                     LDA (dat_0009_L),Y   ;
1ae0: 09 80                     ORA #$80             ;
1ae2: 91 09                     STA (dat_0009_L),Y   ;
1ae4: 88                        DEY                  ;
1ae5: 10 f1                     BPL loc_1ad8         ;
1ae7: a5 07                     LDA dat_0007_L       ;
1ae9: 18                        CLC                  ;
1aea: 69 28                     ADC #$28             ;
1aec: 85 07                     STA dat_0007_L       ;
1aee: 90 02                     BCC loc_1af2         ;
1af0: e6 08                     INC dat_0007_H       ;
1af2: a5 09     loc_1af2        LDA dat_0009_L       ;
1af4: 18                        CLC                  ;
1af5: 69 28                     ADC #$28             ;
1af7: 85 09                     STA dat_0009_L       ;
1af9: 90 02                     BCC loc_1afd         ;
1afb: e6 0a                     INC dat_0009_H       ;
1afd: ca        loc_1afd        DEX                  ;
1afe: d0 d6                     BNE loc_1ad6         ;
1b00: a9 00                     LDA #$00             ;
1b02: 85 09                     STA dat_0009_L       ;
1b04: a9 08                     LDA #$08             ;
1b06: 85 0a                     STA dat_0009_H       ;
1b08: a2 0c                     LDX #$0c             ;
1b0a: a0 00                     LDY #$00             ;
1b0c: a9 ff                     LDA #$ff             ;
1b0e: 91 09     loc_1b0e        STA (dat_0009_L),Y   ;
1b10: c8                        INY                  ;
1b11: d0 fb                     BNE loc_1b0e         ;
1b13: e6 0a                     INC dat_0009_H       ;
1b15: ca                        DEX                  ;
1b16: d0 f6                     BNE loc_1b0e         ;
1b18: 60                        RTS                  ; Return to caller

; Sets the VDSLST (NMI Display List Interrupts (DLI)) to $1b2f [IRQ_VDSLST_1b2f]
; Indirectly invoked from DISPLAY_SUB_1a0d
1b19: 20 09 1c  DO_VDSLST_1b2f  JSR sub_1c09         ;
1b1c: a9 2f                     LDA #$2f             ; Set LSB of VDSLST
1b1e: 8d 00 02                  STA VDSLST           ;     (display list interrupt vector)
1b21: 8d 48 02                  STA CUR_VDSLSTL      ;     and CUR_VDSLSTL ($0248) to $2f
1b24: a9 1b                     LDA #$1b             ; Set MSB of VDSLST
1b26: 8d 01 02                  STA VDSLST+1         ;     and CUR_VDSLSTH ($0249)
1b29: 8d 49 02                  STA CUR_VDSLSTH      ;     to $1b (final addr = $1b2f [IRQ_VDSLST_1b2f])
1b2c: 4c 0a 76                  JMP $760a            ; Continue @ $760a

; Assigned to VDSLST and CUR_VDSLSTL/H in DO_VDSLST_1b2f
1b2f: 48        IRQ_VDSLST_1b2f  PHA                 ; Save current value of A to stack
1b30: 8a                        TXA                  ; Save current value
1b31: 48                        PHA                  ;     of X to stack
1b32: ae b8 18                  LDX UNK_1C19OFS_18B8 ; Set X = value @ UNK_1C19OFS_18B8
1b35: bd 19 1c                  LDA dat_1c19,X       ; Set A = value @ dat_1c19+X
1b38: 8d 0a d4                  STA WSYNC            ; Pause execution until end of scanline (Value written is ignored)
1b3b: 8d 18 d0                  STA COLPF2           ; Set player field 2 color = A
1b3e: e8                        INX                  ; Increment counter
1b3f: 8e b8 18                  STX UNK_1C19OFS_18B8 ;     and update value in memory
1b42: e0 04                     CPX #$04             ; If X < 4,
1b44: 90 0c                     BCC loc_1b52         ;    Then skip the following display list addr update
1b46: ad 4a 02                  LDA VDSLST_A_LO      ; Set the current display
1b49: 8d 00 02                  STA VDSLST           ;     list interrupt handler
1b4c: ad 4b 02                  LDA VDSLST_A_HI      ;     address to the
1b4f: 8d 01 02                  STA VDSLST+1         ;     value in VDSLST_A_LO/HI
1b52: 68        loc_1b52        PLA                  ; Restore the original
1b53: aa                        TAX                  ;     value of X
1b54: 68                        PLA                  ; Restore the original value of A
1b55: 40        IRQ_VDSLST_1b55  RTI                 ; Return from interrupt handler

; Assigned to VDSLST_A_LO/HI in DISPLAY_SUB_1a65
1b56: 48        IRQ_VDSLST_1b56  PHA                 ; Save current value of A to stack
1b57: a9 a2                     LDA #$a2             ; Set the
1b59: 8d 00 02                  STA VDSLST           ;     next VDSLST
1b5c: a9 1b                     LDA #$1b             ;     (display list interrupt vector)
1b5e: 8d 01 02                  STA VDSLST+1         ;     address to $1ba2 [IRQ_VDSLST_1ba2]
1b61: ad ba 18                  LDA CUR_COLPF0       ; Set
1b64: 8d 16 d0                  STA COLPF0           ;     COLPF0 = CUR_COLPF0
1b67: ad bb 18                  LDA CUR_COLPF1       ; Set
1b6a: 8d 17 d0                  STA COLPF1           ;     COLPF1 = CUR_COLPF1
1b6d: ad bc 18                  LDA CUR_COLPF2       ; Set
1b70: 8d 18 d0                  STA COLPF2           ;     COLPF2 = CUR_COLPF2
1b73: ad bf 18                  LDA CUR_COLPF3       ; Set
1b76: 8d 19 d0                  STA COLPF3           ;     COLPF3 = CUR_COLPF3
1b79: ad bd 18                  LDA CUR_COLBK        ;
1b7c: 8d 0a d4                  STA WSYNC            ; Pause execution until end of scanline (Value written is ignored)
1b7f: 8d 1a d0                  STA COLBK            ; Set COLBK = CUR_COLBK
1b82: a9 08                     LDA #$08             ; Set the character
1b84: 8d 09 d4                  STA CHBASE           ;     set address to $0800 (UNK_CHRSET_1)
1b87: ad 00 76                  LDA $7600            ;
1b8a: c9 01                     CMP #$01             ;
1b8c: f0 12                     BEQ loc_1ba0         ;
1b8e: a9 90                     LDA #$90             ;
1b90: 8d 12 d0                  STA COLPM0           ;
1b93: a9 34                     LDA #$34             ;
1b95: 8d 13 d0                  STA COLPM2           ;
1b98: a9 ff                     LDA #$ff             ;
1b9a: 8d 0d d0                  STA GRAFP0           ;
1b9d: 8d 0e d0                  STA GRAFP1           ;
1ba0: 68        loc_1ba0        PLA                  ; Restore original value of A
1ba1: 40                        RTI                  ; Return from interrupt handler

; Assigned to VDSLST_A_LO/HI in IRQ_VDSLST_1b56
1ba2: 48        IRQ_VDSLST_1ba2  PHA                 ; Save current value of A to stack
1ba3: a9 b7                     LDA #$b7             ; Set the
1ba5: 8d 00 02                  STA VDSLST           ;     next VDSLST
1ba8: a9 1b                     LDA #$1b             ;     (display list interrupt vector)
1baa: 8d 01 02                  STA VDSLST+1         ;     address to $1bb7 [IRQ_VDSLST_1bb7]
1bad: a9 0c                     LDA #$0c             ;
1baf: 8d 0a d4                  STA WSYNC            ; Pause execution until end of scanline (Value written is ignored)
1bb2: 8d 09 d4                  STA CHBASE           ; Set the character set address to $0c00
1bb5: 68                        PLA                  ; Restore original value of A
1bb6: 40                        RTI                  ; Return from interrupt handler

; Assigned to VDSLST in IRQ_VDSLST_1ba2
1bb7: 48        IRQ_VDSLST_1bb7  PHA                 ; Save current value of A to stack
1bb8: 8d 0a d4                  STA WSYNC            ; Pause execution until end of scanline (Value written is ignored)
1bbb: a9 d6                     LDA #$d6             ; Set the
1bbd: 8d 00 02                  STA VDSLST           ;     next VDSLST
1bc0: a9 1b                     LDA #$1b             ;     (display list interrupt vector)
1bc2: 8d 01 02                  STA VDSLST+1         ;     address to $1bd6 [IRQ_VDSLST_1bd6]
1bc5: 8d 0a d4                  STA WSYNC            ; Pause execution until end of scanline (Value written is ignored)
1bc8: ad be 18                  LDA COLBK_SET_18BE   ;
1bcb: 8d 0a d4                  STA WSYNC            ; Pause execution until end of scanline (Value written is ignored)
1bce: 8d 0a d4                  STA WSYNC            ; Pause execution until end of scanline (Value written is ignored)
1bd1: 8d 1a d0                  STA COLBK            ;
1bd4: 68                        PLA                  ; Restore original value of A
1bd5: 40                        RTI                  ; Return from interrupt handler

; Assigned to VDSLST in IRQ_VDSLST_1bb7
1bd6: 48        IRQ_VDSLST_1bd6  PHA                 ; Save current value of A to stack
1bd7: a9 eb                     LDA #$eb             ; Set the
1bd9: 8d 00 02                  STA VDSLST           ;     next VDSLST
1bdc: a9 1b                     LDA #$1b             ;     (display list interrupt vector)
1bde: 8d 01 02                  STA VDSLST+1         ;     address to $1beb [IRQ_VDSLST_1beb]
1be1: a9 10                     LDA #$10             ; Set A = $10 (16)
1be3: 8d 0a d4                  STA WSYNC            ; Pause execution until end of scanline (Value written is ignored)
1be6: 8d 09 d4                  STA CHBASE           ; Set the character set address to $1000
1be9: 68                        PLA                  ; Restore original value of A
1bea: 40                        RTI                  ; Return from interrupt handler

;
; Assigned to VDSLST in IRQ_VDSLST_1bd6
1beb: 48        IRQ_VDSLST_1beb  PHA                 ; Save current value of A to stack
1bec: a9 00                     LDA #$00             ; Set A = 0
1bee: 8d 0a d4                  STA WSYNC            ; Pause execution until end of scanline (Value written is ignored)
1bf1: 8d 18 d0                  STA COLPF2           ; Set COLPF2 = 0 (black)
1bf4: 8d 1a d0                  STA COLBK            ; Set COLBK  = 0 (black)
1bf7: 8d 12 d0                  STA COLPM0           ; Set COLPM0 = 0 (black)
1bfa: 8d 13 d0                  STA COLPM2           ; Set COLPM2 = 0 (black)
1bfd: a9 0e                     LDA #$0e             ; Set A = $0e
1bff: 8d 17 d0                  STA COLPF1           ; Set COLPF1 = $0e ()
1c02: a9 14                     LDA #$14             ; Set the character
1c04: 8d 09 d4                  STA CHBASE           ;     set address to $1400 (DUNGEON_CHRSET)
1c07: 68                        PLA                  ; Restore original value of A
1c08: 40                        RTI                  ; Return from interrupt handler

; Initializes 120 byte buffers @ $04f0 [dat_04f0], $0568 [dat_0568] & $05e0 [dat_05e0] to $77 (119 'w')
;   120 bytes @ $04f0 [dat_04f0]
;   120 bytes @ $0568 [dat_0568]
;   120 bytes @ $05e0 [dat_05e0]
1c09: a2 77     sub_1c09        LDX #$77             ; Set X = $77 (119)
1c0b: 8a        loc_1c0b        TXA                  ; Set A = X
1c0c: 9d f0 04                  STA dat_04f0,X       ; Set byte at dat_04f0+X to $77 (119 'w')
1c0f: 9d 68 05                  STA dat_0568,X       ; Set byte at dat_0568+X to $77 (119 'w')
1c12: 9d e0 05                  STA dat_05e0,X       ; Set byte at dat_05e0+X to $77 (119 'w')
1c15: ca                        DEX                  ; Loop while
1c16: 10 f3                     BPL loc_1c0b         ;     X >= 0
1c18: 60                        RTS                  ; Return to caller

1c19: 46 68 88  dat_1c19        .BYTE $46,$68,$88      ; 3 byte lookup table
1c1c: b6 76 9e 34 00  dat_1c1c  .BYTE $b6,$76,$9e,$34,$00 ; 5 byte lookup table
1c21: 00 27 13  UNK_BYTE_TBL_1C21  .BYTE $00,$27,$13   ; 3 byte lookup table
1c24: 20 28 d0 d8  TBL_HPOSM    .BYTE $20,$28,$d0,$d8  ; 4 byte lookup table
1c28: 38 ac 00 00  TBL_HPOSP    .BYTE $38,$ac,$00,$00  ; 4 byte lookup table

1c2c: 86 1b     sub_1c2c        STX tmp_001b         ;
1c2e: 84 1c                     STY dat_001c         ;
1c30: 85 1a                     STA dat_001a         ;
1c32: a4 1f                     LDY dat_001f         ;
1c34: a6 20                     LDX dat_0020         ;
1c36: c9 0d                     CMP #$0d             ;
1c38: f0 29                     BEQ loc_1c63         ;
1c3a: c9 08                     CMP #$08             ;
1c3c: f0 39                     BEQ loc_1c77         ;
1c3e: a9 00                     LDA #$00             ;
1c40: 85 1e                     STA dat_001e         ;
1c42: 8a                        TXA                  ;
1c43: 0a                        ASL                  ;
1c44: 0a                        ASL                  ;
1c45: 0a                        ASL                  ;
1c46: 85 1d                     STA dat_001d         ;
1c48: 0a                        ASL                  ;
1c49: 26 1e                     ROL dat_001e         ;
1c4b: 0a                        ASL                  ;
1c4c: 26 1e                     ROL dat_001e         ;
1c4e: 65 1d                     ADC dat_001d         ;
1c50: 85 1d                     STA dat_001d         ;
1c52: a5 1e                     LDA dat_001e         ;
1c54: 69 04                     ADC #$04             ;
1c56: 85 1e                     STA dat_001e         ;
1c58: a5 1a                     LDA dat_001a         ;
1c5a: 05 21                     ORA dat_0021         ;
1c5c: 91 1d                     STA (dat_001d),Y     ;
1c5e: c8                        INY                  ;
1c5f: c0 28                     CPY #$28             ;
1c61: 90 09                     BCC loc_1c6c         ;
1c63: a0 00     loc_1c63        LDY #$00             ;
1c65: e8                        INX                  ; Add 1 to X
1c66: e0 19                     CPX #$19             ; If X >= $19 (25)
1c68: 90 02                     BCC loc_1c6c         ;     Then
1c6a: a2 18                     LDX #$18             ;     Set X = $18 (24)
1c6c: 84 1f     loc_1c6c        STY dat_001f         ; Save original value of Y
1c6e: 86 20                     STX dat_0020         ;
1c70: a4 1c                     LDY dat_001c         ;
1c72: a6 1b                     LDX tmp_001b         ;
1c74: a5 1a                     LDA dat_001a         ;
1c76: 60                        RTS                  ; Return to caller
1c77: 88        loc_1c77        DEY                  ; Subtract 1 from Y
1c78: 10 f2                     BPL loc_1c6c         ; If Y >= 0,
1c7a: a0 27                     LDY #$27             ;
1c7c: ca                        DEX                  ;
1c7d: 10 ed                     BPL loc_1c6c         ;
1c7f: a2 00                     LDX #$00             ;
1c81: f0 e9                     BEQ loc_1c6c         ;
1c83: 60                        RTS                  ; Return to caller

1c84: a2 00     sub_1c84        LDX #$00             ;
1c86: f0 06                     BEQ loc_1c8e         ;
1c88: a2 01     sub_1c88        LDX #$01             ;
1c8a: d0 02                     BNE loc_1c8e         ;
1c8c: a2 02     sub_1c8c        LDX #$02             ;
1c8e: 86 23     loc_1c8e        STX dat_0023         ;
1c90: bd c1 18                  LDA UNK_TBL_18C1,X   ;
1c93: 85 1f                     STA dat_001f         ;
1c95: bd c4 18                  LDA dat_18c4,X       ;
1c98: 18                        CLC                  ;
1c99: 7d a8 1f                  ADC dat_1fa8,X       ;
1c9c: 85 20                     STA dat_0020         ;
1c9e: bd c7 18                  LDA dat_18c7,X       ;
1ca1: 85 21                     STA dat_0021         ;
1ca3: a9 00                     LDA #$00             ;
1ca5: 85 24                     STA dat_0024         ;
1ca7: 85 25                     STA dat_0025         ;
1ca9: 85 26                     STA dat_0026         ;
1cab: 20 31 1f  loc_1cab        JSR sub_1f31         ;
1cae: c9 80                     CMP #$80             ;
1cb0: b0 06                     BCS loc_1cb8         ;
1cb2: 20 3c 1f                  JSR sub_1f3c         ;
1cb5: 4c ab 1c                  JMP loc_1cab         ;
1cb8: c9 ff     loc_1cb8        CMP #$ff             ;
1cba: f0 15                     BEQ loc_1cd1         ;
1cbc: 38                        SEC                  ;
1cbd: e9 a0                     SBC #$a0             ;
1cbf: c9 15                     CMP #$15             ;
1cc1: b0 0c                     BCS cont_1ccf        ; If A >= 15, skip the following and trigger a BRK
1cc3: a6 23                     LDX dat_0023         ;
1cc5: a8                        TAY                  ;
1cc6: b9 d4 1f                  LDA dat_1fbf_H,Y     ; Read the corresponding entry from
1cc9: 48                        PHA                  ;     tbl_1fd4_L/dat_1fbf_H
1cca: b9 bf 1f                  LDA tbl_1fd4_L,Y     ;     and push it
1ccd: 48                        PHA                  ;     onto the stack
1cce: 60                        RTS                  ; Indirectly jump to address pushed to stack + 1
                                                     ;      0: $1ce7 [cont_1ce7]
                                                     ;      1: $1ced [cont_1ced]
                                                     ;      2: $1d21 [cont_1d21]
                                                     ;      3: $1cfe [cont_1cfe]
                                                     ;      4: $1cf3 [cont_1cf3]
                                                     ;      5: $1d0a [cont_1d0a]
                                                     ;      6: $1d2a [cont_1d2a]
                                                     ;      7: $1d3b [cont_1d3b]
                                                     ;      8: $1d50 [cont_1d50]
                                                     ;      9: $1d74 [cont_1d74]
                                                     ;     10: $1dc0 [cont_1dc0]
                                                     ;     11: $1d9a [cont_1d9a]
                                                     ;     12: $1ee3 [cont_1ee3]
                                                     ;     13: $1efb [cont_1efb]
                                                     ;     14: $1f16 [cont_1f16]
                                                     ;     15: $1ccf [cont_1ccf]
                                                     ;     16: $1dc9 [cont_1dc9]
                                                     ;     17: $1dd9 [cont_1dd9]
                                                     ;     18: $1dec [cont_1dec]
                                                     ;     19: $1eb4 [cont_1eb4]
                                                     ;     20: $1ebf [cont_1ebf]

; Indirectly called using lookup tables tbl_1fd4_L/dat_1fbf_H
1ccf: 00        cont_1ccf       BRK                  ; Interrupt and invoke VBREAK vector (debugger breakpoint?)
1cd0: 60                        RTS                  ; Return to caller
1cd1: a6 23     loc_1cd1        LDX dat_0023         ;
1cd3: a5 1f                     LDA dat_001f         ;
1cd5: 9d c1 18                  STA UNK_TBL_18C1,X   ;
1cd8: a5 20                     LDA dat_0020         ;
1cda: 38                        SEC                  ;
1cdb: fd a8 1f                  SBC dat_1fa8,X       ;
1cde: 9d c4 18                  STA dat_18c4,X       ;
1ce1: a5 21                     LDA dat_0021         ;
1ce3: 9d c7 18                  STA dat_18c7,X       ;
1ce6: 60                        RTS                  ; Return to caller

; Indirectly called using lookup tables tbl_1fd4_L/dat_1fbf_H
1ce7: a9 00     cont_1ce7       LDA #$00             ;
1ce9: 85 21                     STA dat_0021         ;
1ceb: f0 be                     BEQ loc_1cab         ;
Indirectly called using lookup tables tbl_1fd4_L/dat_1fbf_H
1ced: a9 80     cont_1ced       LDA #$80             ;
1cef: 85 21                     STA dat_0021         ;
1cf1: d0 b8                     BNE loc_1cab         ;
; Indirectly called using lookup tables tbl_1fd4_L/dat_1fbf_H
1cf3: 20 26 1f  cont_1cf3       JSR sub_1f26         ;
1cf6: b1 18                     LDA (sub_add_0018_L),Y ;
1cf8: 20 9d 1e                  JSR sub_1e9d         ;
1cfb: 4c ab 1c                  JMP loc_1cab         ; Continue @ $1cab [loc_1cab]

Indirectly called using lookup tables tbl_1fd4_L/dat_1fbf_H
1cfe: 20 26 1f  cont_1cfe       JSR sub_1f26         ;
1d01: 20 07 1d                  JSR sub_1d07         ;
1d04: 4c ab 1c                  JMP loc_1cab         ; Continue @ $1cab [loc_1cab]

1d07: 6c 18 00  sub_1d07        JMP (sub_add_0018_L) ;

Indirectly called using lookup tables tbl_1fd4_L/dat_1fbf_H
1d0a: a9 00     cont_1d0a       LDA #$00             ;
1d0c: 8d 23 1f                  STA dat_1f23         ;
1d0f: 85 25     loc_1d0f        STA dat_0025         ;
1d11: 85 26                     STA dat_0026         ;
1d13: a5 16                     LDA addr_0016_L      ;
1d15: 85 27                     STA sub_add_0027_L   ;
1d17: a5 17                     LDA addr_0016_H      ;
1d19: 85 28                     STA sub_add_0028_H   ;
1d1b: a9 80                     LDA #$80             ;
1d1d: 85 24                     STA dat_0024         ;
1d1f: 30 8a                     BMI loc_1cab         ;
Indirectly called using lookup tables tbl_1fd4_L/dat_1fbf_H
1d21: a9 80     cont_1d21       LDA #$80             ;
1d23: 8d 23 1f                  STA dat_1f23         ;
1d26: a9 00                     LDA #$00             ;
1d28: f0 e5                     BEQ loc_1d0f         ;
Indirectly called using lookup tables tbl_1fd4_L/dat_1fbf_H
1d2a: 20 31 1f  cont_1d2a       JSR sub_1f31         ;
1d2d: 85 1f                     STA dat_001f         ;
1d2f: 20 31 1f                  JSR sub_1f31         ;
1d32: 18                        CLC                  ;
1d33: 7d a8 1f                  ADC dat_1fa8,X       ;
1d36: 85 20                     STA dat_0020         ;
1d38: 4c ab 1c                  JMP loc_1cab         ; Continue @ $1cab [loc_icab]

Indirectly called using lookup tables tbl_1fd4_L/dat_1fbf_H
1d3b: a5 16     cont_1d3b       LDA addr_0016_L      ;
1d3d: 85 27                     STA sub_add_0027_L   ;
1d3f: a5 17                     LDA addr_0016_H      ;
1d41: 85 28                     STA sub_add_0028_H   ;
1d43: a9 c0                     LDA #$c0             ;
1d45: 85 24                     STA dat_0024         ;
1d47: a9 00                     LDA #$00             ;
1d49: 85 25                     STA dat_0025         ;
1d4b: 85 26                     STA dat_0026         ;
1d4d: 4c ab 1c                  JMP loc_1cab         ;

Indirectly called using lookup tables tbl_1fd4_L/dat_1fbf_H
1d50: a9 00     cont_1d50       LDA #$00             ;
1d52: 85 1f                     STA dat_001f         ;
1d54: bd a8 1f                  LDA dat_1fa8,X       ;
1d57: 18                        CLC                  ;
1d58: 7d ab 1f                  ADC dat_1fab,X       ;
1d5b: 85 20                     STA dat_0020         ;
1d5d: 20 7a 1d  loc_1d5d        JSR sub_1d7a         ;
1d60: c6 20                     DEC dat_0020         ;
1d62: a5 20                     LDA dat_0020         ;
1d64: 38                        SEC                  ;
1d65: fd a8 1f                  SBC dat_1fa8,X       ;
1d68: c9 ff                     CMP #$ff             ;
1d6a: d0 f1                     BNE loc_1d5d         ;
1d6c: bd a8 1f                  LDA dat_1fa8,X       ;
1d6f: 85 20                     STA dat_0020         ;
1d71: 4c ab 1c                  JMP loc_1cab         ;

Indirectly called using lookup tables tbl_1fd4_L/dat_1fbf_H
1d74: 20 7a 1d  cont_1d74       JSR sub_1d7a         ;
1d77: 4c ab 1c                  JMP loc_1cab         ;

; Return value in X?
1d7a: a4 20     sub_1d7a        LDY dat_0020         ;
1d7c: a9 28                     LDA #$28             ;
1d7e: 20 e9 1f                  JSR sub_1fe9         ;
1d81: 18                        CLC                  ;
1d82: 69 00                     ADC #$00             ;
1d84: 8d 92 1d                  STA dat_1d92         ;
1d87: a5 03                     LDA dat_0003         ;
1d89: 69 04                     ADC #$04             ;
1d8b: 8d 93 1d                  STA dat_1d93         ;
1d8e: a0 27                     LDY #$27             ;
1d90: 8a                        TXA                  ;
1d91: 99 ff ff  loc_1d91        STA $ffff,Y          ;
1d94: 88                        DEY                  ;
1d95: 10 fa                     BPL loc_1d91         ;
1d97: a6 23                     LDX dat_0023         ; Load X with return value?
1d99: 60                        RTS                  ; Return to caller

Indirectly called using lookup tables tbl_1fd4_L/dat_1fbf_H
1d9a: 24 24     cont_1d9a       BIT dat_0024         ;
1d9c: 30 1f                     BMI loc_1dbd         ;
1d9e: a9 28                     LDA #$28             ;
1da0: a4 20                     LDY dat_0020         ;
1da2: 20 e9 1f                  JSR sub_1fe9         ;
1da5: 18                        CLC                  ;
1da6: a5 02                     LDA dat_0002         ;
1da8: 69 00                     ADC #$00             ;
1daa: 85 09                     STA dat_0009_L       ;
1dac: a5 03                     LDA dat_0003         ;
1dae: 69 04                     ADC #$04             ;
1db0: 85 0a                     STA dat_0009_H       ;
1db2: a4 1f                     LDY dat_001f         ;
1db4: a9 20                     LDA #$20             ;
1db6: 91 09     loc_1db6        STA (dat_0009_L),Y   ;
1db8: c8                        INY                  ;
1db9: c0 28                     CPY #$28             ;
1dbb: 90 f9                     BCC loc_1db6         ;
1dbd: 4c ab 1c  loc_1dbd        JMP loc_1cab         ;

Indirectly called using lookup tables tbl_1fd4_L/dat_1fbf_H
1dc0: a9 00     cont_1dc0       LDA #$00             ;
1dc2: 85 21                     STA dat_0021         ;
1dc4: 85 24                     STA dat_0024         ;
1dc6: 4c ab 1c                  JMP loc_1cab         ;

Indirectly called using lookup tables tbl_1fd4_L/dat_1fbf_H
1dc9: 20 26 1f  cont_1dc9       JSR sub_1f26         ;
1dcc: b1 18     loc_1dcc        LDA (sub_add_0018_L),Y ;
1dce: 99 29 00                  STA dat_0029,Y       ;
1dd1: c8                        INY                  ;
1dd2: c0 04                     CPY #$04             ;
1dd4: 90 f6                     BCC loc_1dcc         ;
1dd6: 4c f9 1d                  JMP loc_1df9         ;

Indirectly called using lookup tables tbl_1fd4_L/dat_1fbf_H
1dd9: 20 26 1f  cont_1dd9       JSR sub_1f26         ;
1ddc: 84 29                     STY dat_0029         ;
1dde: 84 2a                     STY dat_002a         ;
1de0: b1 18                     LDA (sub_add_0018_L),Y ;
1de2: 85 2b                     STA dat_002b         ;
1de4: c8                        INY                  ;
1de5: b1 18                     LDA (sub_add_0018_L),Y ;
1de7: 85 2c                     STA dat_002c         ;
1de9: 4c f9 1d                  JMP loc_1df9         ;

Indirectly called using lookup tables tbl_1fd4_L/dat_1fbf_H
1dec: 20 26 1f  cont_1dec       JSR sub_1f26         ;
1def: 84 29                     STY dat_0029         ;
1df1: 84 2a                     STY dat_002a         ;
1df3: 84 2b                     STY dat_002b         ;
1df5: b1 18                     LDA (sub_add_0018_L),Y ;
1df7: 85 2c                     STA dat_002c         ;
1df9: 20 31 1f  loc_1df9        JSR sub_1f31         ;
1dfc: 85 2d                     STA dat_002d         ;
1dfe: f8                        SED                  ;
1dff: a9 00                     LDA #$00             ;
1e01: a2 03                     LDX #$03             ;
1e03: 95 02     loc_1e03        STA dat_0002,X       ;
1e05: ca                        DEX                  ;
1e06: 10 fb                     BPL loc_1e03         ;
1e08: a2 1f                     LDX #$1f             ;
1e0a: 06 2c     loc_1e0a        ASL dat_002c         ;
1e0c: 26 2b                     ROL dat_002b         ;
1e0e: 26 2a                     ROL dat_002a         ;
1e10: 26 29                     ROL dat_0029         ;
1e12: a5 05                     LDA dat_0005         ;
1e14: 65 05                     ADC dat_0005         ;
1e16: 85 05                     STA dat_0005         ;
1e18: a5 04                     LDA dat_0004         ;
1e1a: 65 04                     ADC dat_0004         ;
1e1c: 85 04                     STA dat_0004         ;
1e1e: a5 03                     LDA dat_0003         ;
1e20: 65 03                     ADC dat_0003         ;
1e22: 85 03                     STA dat_0003         ;
1e24: a5 02                     LDA dat_0002         ;
1e26: 65 02                     ADC dat_0002         ;
1e28: 85 02                     STA dat_0002         ;
1e2a: b0 52                     BCS loc_1e7e         ;
1e2c: ca                        DEX                  ;
1e2d: 10 db                     BPL loc_1e0a         ;
1e2f: d8                        CLD                  ;
1e30: a2 00                     LDX #$00             ;
1e32: a0 00                     LDY #$00             ;
1e34: 20 8b 1e  loc_1e34        JSR sub_1e8b         ;
1e37: e8                        INX                  ;
1e38: e0 04                     CPX #$04             ;
1e3a: 90 f8                     BCC loc_1e34         ;
1e3c: a2 00                     LDX #$00             ;
1e3e: a0 08                     LDY #$08             ;
1e40: bd ca 18  loc_1e40        LDA dat_18ca,X       ;
1e43: d0 06                     BNE loc_1e4b         ;
1e45: e8                        INX                  ;
1e46: 88                        DEY                  ;
1e47: d0 f7                     BNE loc_1e40         ;
1e49: ca                        DEX                  ;
1e4a: c8                        INY                  ;
1e4b: 38        loc_1e4b        SEC                  ;
1e4c: a5 2d                     LDA dat_002d         ;
1e4e: f9 ae 1f                  SBC dat_1fae,Y       ;
1e51: 90 2b                     BCC loc_1e7e         ;
1e53: 85 2d                     STA dat_002d         ;
1e55: bd b7 1f                  LDA dat_1fb7,X       ;
1e58: a8                        TAY                  ;
1e59: bd ca 18  loc_1e59        LDA dat_18ca,X       ;
1e5c: 09 30                     ORA #$30             ;
1e5e: 20 3c 1f                  JSR sub_1f3c         ;
1e61: 88                        DEY                  ;
1e62: d0 08                     BNE loc_1e6c         ;
1e64: a9 2c                     LDA #$2c             ;
1e66: 20 3c 1f                  JSR sub_1f3c         ;
1e69: bc b8 1f                  LDY dat_1fb8,X       ;
1e6c: e8        loc_1e6c        INX                  ;
1e6d: e0 08                     CPX #$08             ;
1e6f: 90 e8                     BCC loc_1e59         ;
1e71: 2c fe 18                  BIT loc_18fe         ;
1e74: 30 12                     BMI loc_1e88         ;
1e76: a5 2d                     LDA dat_002d         ;
1e78: f0 0e                     BEQ loc_1e88         ;
1e7a: a9 20                     LDA #$20             ;
1e7c: d0 03                     BNE loc_1e81         ;
1e7e: d8        loc_1e7e        CLD                  ;
1e7f: a9 21                     LDA #$21             ;
1e81: 20 3c 1f  loc_1e81        JSR sub_1f3c         ;
1e84: c6 2d                     DEC dat_002d         ;
1e86: d0 f9                     BNE loc_1e81         ;
1e88: 4c ab 1c  loc_1e88        JMP loc_1cab         ;

1e8b: b5 02     sub_1e8b        LDA dat_0002,X       ;
1e8d: 4a                        LSR                  ;
1e8e: 4a                        LSR                  ;
1e8f: 4a                        LSR                  ;
1e90: 4a                        LSR                  ;
1e91: 20 98 1e                  JSR sub_1e98         ;
1e94: b5 02                     LDA dat_0002,X       ;
1e96: 29 0f                     AND #$0f             ;
1e98: 99 ca 18  sub_1e98        STA dat_18ca,Y       ;
1e9b: c8                        INY                  ;
1e9c: 60                        RTS                  ; Return to caller

; Parameters
;   A = ?? (high and low nibbles processed separately via sub_1ea8)
1e9d: 48        sub_1e9d        PHA                  ; Save current value of A
1e9e: 4a                        LSR                  ; Divide
1e9f: 4a                        LSR                  ;     A by 16
1ea0: 4a                        LSR                  ;     and process
1ea1: 4a                        LSR                  ;     the high
1ea2: 20 a8 1e                  JSR sub_1ea8         ;     nibble
1ea5: 68                        PLA                  ; Restore previous value of A
1ea6: 29 0f                     AND #$0f             ;     and process the low nibble
1ea8: 18        sub_1ea8        CLC                  ;
1ea9: 69 30                     ADC #$30             ;
1eab: c9 3a                     CMP #$3a             ;
1ead: 90 02                     BCC loc_1eb1         ;
1eaf: 69 06                     ADC #$06             ;
1eb1: 4c 3c 1f  loc_1eb1        JMP sub_1f3c         ;

; This location is indirectly jumped to from sub_1c84
1eb4: 20 26 1f  cont_1eb4       JSR sub_1f26         ;
1eb7: 20 31 1f                  JSR sub_1f31         ;
1eba: 85 2d                     STA dat_002d         ;
1ebc: 4c d4 1e                  JMP loc_1ed4         ;

; This location is indirectly jumped to from sub_1c84
1ebf: 20 26 1f  cont_1ebf       JSR sub_1f26         ;
1ec2: 20 31 1f                  JSR sub_1f31         ;
1ec5: 85 2d                     STA dat_002d         ;
1ec7: b1 18                     LDA (sub_add_0018_L),Y ;
1ec9: 48                        PHA                  ;
1eca: c8                        INY                  ;
1ecb: b1 18                     LDA (sub_add_0018_L),Y ;
1ecd: 85 19                     STA sub_add_0018_H   ;
1ecf: 68                        PLA                  ;
1ed0: 85 18                     STA sub_add_0018_L   ;
1ed2: a0 00                     LDY #$00             ;
1ed4: b1 18     loc_1ed4        LDA (sub_add_0018_L),Y ;
1ed6: f0 08                     BEQ loc_1ee0         ;
1ed8: 20 3c 1f                  JSR sub_1f3c         ;
1edb: c8                        INY                  ;
1edc: c4 2d                     CPY dat_002d         ;
1ede: 90 f4                     BCC loc_1ed4         ;
1ee0: 4c ab 1c  loc_1ee0        JMP loc_1cab         ;

; This location is indirectly jumped to from sub_1c84
1ee3: 20 26 1f  cont_1ee3       JSR sub_1f26         ;
1ee6: a5 16                     LDA addr_0016_L      ;
1ee8: 8d 24 1f                  STA dat_1f24         ;
1eeb: a5 17                     LDA addr_0016_H      ;
1eed: 8d 25 1f                  STA dat_1f25         ;
1ef0: a5 18                     LDA sub_add_0018_L   ;
1ef2: 85 16                     STA addr_0016_L      ;
1ef4: a5 19                     LDA sub_add_0018_H   ;
1ef6: 85 17                     STA addr_0016_H      ;
1ef8: 4c ab 1c                  JMP loc_1cab         ;

; This location is indirectly jumped to from sub_1c84
1efb: 20 26 1f  cont_1efb       JSR sub_1f26         ;
1efe: a5 16                     LDA addr_0016_L      ;
1f00: 8d 24 1f                  STA dat_1f24         ;
1f03: a5 17                     LDA addr_0016_H      ;
1f05: 8d 25 1f                  STA dat_1f25         ;
1f08: a0 00                     LDY #$00             ;
1f0a: b1 18                     LDA (sub_add_0018_L),Y ;
1f0c: 85 16                     STA addr_0016_L      ;
1f0e: c8                        INY                  ;
1f0f: b1 18                     LDA (sub_add_0018_L),Y ;
1f11: 85 17                     STA addr_0016_H      ;
1f13: 4c ab 1c                  JMP loc_1cab         ;

; This location is indirectly jumped to from sub_1c84
1f16: ad 24 1f  cont_1f16       LDA dat_1f24         ;
1f19: 85 16                     STA addr_0016_L      ;
1f1b: ad 25 1f                  LDA dat_1f25         ;
1f1e: 85 17                     STA addr_0016_H      ;
1f20: 4c ab 1c                  JMP loc_1cab         ;

1f23: 00        dat_1f23        .BYTE $00            ;
1f24: 00        dat_1f24        .BYTE $00            ;
1f25: 00        dat_1f25        .BYTE $00            ;

1f26: 20 31 1f  sub_1f26        JSR sub_1f31         ;
1f29: 85 18                     STA sub_add_0018_L   ;
1f2b: 20 31 1f                  JSR sub_1f31         ;
1f2e: 85 19                     STA sub_add_0018_H   ;
1f30: 60                        RTS                  ; Return to caller

; Reads the next character from the string @ the addr stored in addr_0016_L
1f31: a0 00     sub_1f31        LDY #$00             ;
1f33: b1 16                     LDA (addr_0016_L),Y  ;
1f35: e6 16                     INC addr_0016_L      ;
1f37: d0 02                     BNE loc_1f3b         ;
1f39: e6 17                     INC addr_0016_H      ;
1f3b: 60        loc_1f3b        RTS                  ; Return to caller

1f3c: 24 24     sub_1f3c        BIT dat_0024         ;
1f3e: 30 0e                     BMI loc_1f4e         ;
1f40: 24 26                     BIT dat_0026         ;
1f42: 10 07                     BPL loc_1f4b         ;
1f44: c9 0d                     CMP #$0d             ;
1f46: d0 03                     BNE loc_1f4b         ;
1f48: 85 26                     STA dat_0026         ;
1f4a: 60                        RTS                  ; Return to caller
1f4b: 4c 2c 1c  loc_1f4b        JMP sub_1c2c         ;
1f4e: c9 0d     loc_1f4e        CMP #$0d             ;
1f50: f0 03                     BEQ loc_1f55         ;
1f52: e6 25                     INC dat_0025         ;
1f54: 60                        RTS                  ; Return to caller
1f55: a9 00     loc_1f55        LDA #$00             ;
1f57: 24 24                     BIT dat_0024         ;
1f59: 85 24                     STA dat_0024         ;
1f5b: 50 20                     BVC loc_1f7d         ;
1f5d: a9 28                     LDA #$28             ;
1f5f: 38                        SEC                  ;
1f60: e5 25                     SBC dat_0025         ;
1f62: c9 28                     CMP #$28             ;
1f64: 90 02                     BCC loc_1f68         ;
1f66: a9 00                     LDA #$00             ;
1f68: 85 1f     loc_1f68        STA dat_001f         ;
1f6a: d0 04                     BNE loc_1f70         ;
1f6c: a9 80     loc_1f6c        LDA #$80             ;
1f6e: 85 26                     STA dat_0026         ;
1f70: 68        loc_1f70        PLA                  ;
1f71: 68                        PLA                  ;
1f72: a5 27                     LDA sub_add_0027_L   ;
1f74: 85 16                     STA addr_0016_L      ;
1f76: a5 28                     LDA sub_add_0028_H   ;
1f78: 85 17                     STA addr_0016_H      ;
1f7a: 4c ab 1c                  JMP loc_1cab         ;
1f7d: a9 28     loc_1f7d        LDA #$28             ;
1f7f: 38                        SEC                  ;
1f80: e5 25                     SBC dat_0025         ;
1f82: 4a                        LSR                  ;
1f83: 10 02                     BPL loc_1f87         ;
1f85: a9 00                     LDA #$00             ;
1f87: 8d 9b 1f  loc_1f87        STA smc_1f9a+1       ; Self-modifying code: Updates CMP value below
1f8a: 2c 23 1f                  BIT dat_1f23         ;
1f8d: 10 0f                     BPL loc_1f9e         ;
1f8f: a9 00                     LDA #$00             ;
1f91: 85 1f                     STA dat_001f         ;
1f93: a9 20     loc_1f93        LDA #$20             ;
1f95: 20 2c 1c                  JSR sub_1c2c         ;
1f98: a5 1f                     LDA dat_001f         ;
1f9a: c9 ff     smc_1f9a        CMP #$ff             ; The value compared to here is dynamically modified above
1f9c: d0 f5                     BNE loc_1f93         ;
1f9e: 85 1f     loc_1f9e        STA dat_001f         ;
1fa0: a5 25                     LDA dat_0025         ;
1fa2: c9 28                     CMP #$28             ;
1fa4: f0 c6                     BEQ loc_1f6c         ;
1fa6: d0 c8                     BNE loc_1f70         ;

1fa8: 00 0f 00  dat_1fa8        .BYTE $00,$0f,$00    ;
1fab: 05 07 18  dat_1fab        .BYTE $05,$07,$18    ;
1fae: 01 01 02 03 05 06 07 09 0a  dat_1fae  .BYTE $01,$01,$02,$03,$05,$06,$07,$09,$0a
1fb7: 02        dat_1fb7        .BYTE $02            ;
1fb8: 01 03 02 01 09 09 09  dat_1fb8  .BYTE $01,$03,$02,$01,$09,$09,$09
1fbf: e6 ec 20 fd f2 09 29 3a  tbl_1fd4_L  .BYTE $e6,$ec,$20,$fd,$f2,$09,$29,$3a  ; .. ...):
1fc7: 4f 73 bf 99 e2 fa 15 ce   .BYTE $4f,$73,$bf,$99,$e2,$fa,$15,$ce  ; Os......
1fcf: c8 d8 eb b3 be            .BYTE $c8,$d8,$eb,$b3,$be  ; .....
1fd4: 1c 1c 1d 1c 1c 1d 1d 1d  dat_1fbf_H  .BYTE $1c,$1c,$1d,$1c,$1c,$1d,$1d,$1d    ; ...
1fdc: 1d 1e 1e 1f 1c 1d 1d 1d   .BYTE $1d,$1d,$1d,$1d,$1e,$1e,$1f,$1c  ; ........
1fe4: 1d 1d 1d 1e 1e            .BYTE $1d,$1d,$1d,$1e,$1e  ; ........

1fe9: 85 04     sub_1fe9        STA dat_0004         ;
1feb: 84 05                     STY dat_0005         ;
1fed: a9 00                     LDA #$00             ;
1fef: 85 03                     STA dat_0003         ;
1ff1: a2 08                     LDX #$08             ;
1ff3: 0a        loc_1ff3        ASL                  ;
1ff4: 26 03                     ROL dat_0003         ;
1ff6: 06 05                     ASL dat_0005         ;
1ff8: 90 07                     BCC loc_2001         ;
1ffa: 18                        CLC                  ;
1ffb: 65 04                     ADC dat_0004         ;
1ffd: 90 02                     BCC loc_2001         ;
1fff: e6 03                     INC dat_0003         ;
2001: ca        loc_2001        DEX                  ;
2002: d0 ef                     BNE loc_1ff3         ;
2004: 85 02                     STA dat_0002         ;
2006: 60                        RTS                  ; Return to caller

; Unused data bytes?
2007: a8        dat_2007        .BYTE $a8            ; .
2008: ff                        .BYTE $ff            ; .

2009: a9 07     sub_2009        LDA #$07             ;
200b: 2d 37 02                  AND dat_0237         ;
200e: 09 20                     ORA #$20             ;
2010: 8d 37 02                  STA dat_0237         ;
2013: 8d 0f d2                  STA SKCTL            ;
2016: a9 c7                     LDA #$c7             ;
2018: 2d 36 02                  AND dat_0236         ;
201b: 09 10                     ORA #$10             ;
201d: 8d 36 02  loc_201d        STA dat_0236         ;
2020: 8d 0e d2  loc_2020        STA IRQEN            ;
2023: a9 28                     LDA #$28             ;
2025: 8d 08 d2                  STA AUDCTL           ;
2028: a9 a0                     LDA #$a0             ;
202a: 9d 07 d2                  STA AUDC4,X          ;
202d: 8d 05 d2                  STA AUDC3            ;
2030: 8d 03 d2                  STA AUDC2            ;
2033: 8d 01 d2                  STA AUDC1            ;
2036: 60                        RTS                  ; Return to caller

2037: a9 c7     sub_2037        LDA #$c7             ;
2039: 2d 36 02                  AND dat_0236         ;
203c: 8d 36 02                  STA dat_0236         ;
203f: 8d 0e d2                  STA IRQEN            ;
2042: a2 06                     LDX #$06             ;
2044: a9 00                     LDA #$00             ;
2046: 9d 01 d2  loc_2046        STA AUDC1,X          ;
2049: ca                        DEX                  ;
204a: ca                        DEX                  ;
204b: 10 f9                     BPL loc_2046         ;
204d: 60                        RTS                  ; Return to caller

204e: a9 01     loc_204e        LDA #$01             ;
2050: 8d 3f 02                  STA ERRFLG           ;
2053: a9 0d     loc_2053        LDA #$0d             ;
2055: 8d 3e 02                  STA TEMP             ;
2058: a2 03     loc_2058        LDX #$03             ;
205a: bd 30 02  loc_205a        LDA SDLST,X          ;
205d: 9d 66 02                  STA LINBUF+31,X      ;
2060: ca                        DEX                  ;
2061: 10 f7     loc_2061        BPL loc_205a         ;
2063: a9 28                     LDA #$28             ;
2065: 8d 04 d2                  STA AUDF3            ;
2068: a9 00                     LDA #$00             ;
206a: 8d 06 d2                  STA AUDF4            ;
206d: 18                        CLC                  ;
206e: 18                        CLC                  ;
206f: a9 66                     LDA #$66             ;
2071: 85 00                     STA LINZBS           ;
2073: 69 04     loc_2073        ADC #$04             ;
2075: 8d 3a 02                  STA CDEVIC           ;
2078: a9 02                     LDA #$02             ;
207a: 85 01                     STA LINZBS+1         ;
207c: 8d 3b 02                  STA CCOMND           ;
207f: a9 34                     LDA #$34             ;
2081: 8d 03 d3                  STA PBCTL            ;
2084: 20 f7 20                  JSR sub_20f7         ;
2087: ad 57 02                  LDA LINBUF+16        ;
208a: d0 03                     BNE loc_208f         ;
208c: 98                        TYA                  ;
208d: d0 08                     BNE loc_2097         ;
208f: ce 3e 02  loc_208f        DEC TEMP             ;
2092: 10 c4                     BPL loc_2058         ;
2094: 4c e5 20                  JMP loc_20e5         ;
2097: ad 46 02  loc_2097        LDA DSKTIM           ;
209a: 10 0d                     BPL loc_20a9         ;
209c: a9 0d                     LDA #$0d             ;
209e: 8d 3e 02                  STA TEMP             ;
20a1: 20 d1 21                  JSR sub_21d1         ;
20a4: 20 f7 20                  JSR sub_20f7         ;
20a7: f0 e6                     BEQ loc_208f         ;
20a9: ad 47 02  loc_20a9        LDA LINBUF           ;
20ac: 6a                        ROR                  ;
20ad: 6a                        ROR                  ;
20ae: a8                        TAY                  ;
20af: 29 3f                     AND #$3f             ;
20b1: aa                        TAX                  ;
20b2: 98                        TYA                  ;
20b3: 6a                        ROR                  ;
20b4: 29 c0                     AND #$c0             ;
20b6: a8                        TAY                  ;
20b7: a9 00                     LDA #$00             ;
20b9: 8d 57 02                  STA LINBUF+16        ;
20bc: 20 26 21                  JSR sub_2126         ;
20bf: f0 12                     BEQ loc_20d3         ;
20c1: 2c 46 02                  BIT DSKTIM           ;
20c4: 70 07                     BVS loc_20cd         ;
20c6: ad 57 02                  LDA LINBUF+16        ;
20c9: d0 1a                     BNE loc_20e5         ;
20cb: f0 20                     BEQ loc_20ed         ;
20cd: 20 d1 21  loc_20cd        JSR sub_21d1         ;
20d0: 20 8e 21                  JSR sub_218e         ;
20d3: ad 57 02  loc_20d3        LDA LINBUF+16        ;
20d6: f0 06                     BEQ loc_20de         ;
20d8: ad 38 02                  LDA $0238            ;
20db: 8d 3d 02                  STA CAUX2            ;
20de: ad 3d 02  loc_20de        LDA CAUX2            ;
20e1: c9 01                     CMP #$01             ;
20e3: f0 08                     BEQ loc_20ed         ;
20e5: ce 3f 02  loc_20e5        DEC ERRFLG           ;
20e8: 30 03                     BMI loc_20ed         ;
20ea: 4c 53 20                  JMP loc_2053         ;
20ed: 20 37 20  loc_20ed        JSR sub_2037         ;
20f0: ac 3d 02                  LDY CAUX2            ;
20f3: 8c 46 02                  STY DSKTIM           ;
20f6: 60                        RTS                  ; Return to caller

20f7: a2 00     sub_20f7        LDX #$00             ;
20f9: ca        loc_20f9        DEX                  ;
20fa: d0 fd                     BNE loc_20f9         ;
20fc: ca        loc_20fc        DEX                  ;
20fd: d0 fd                     BNE loc_20fc         ;
20ff: a9 01                     LDA #$01             ;
2101: 8d 3d 02                  STA CAUX2            ;
2104: 20 09 20                  JSR sub_2009         ;
2107: a0 00                     LDY #$00             ;
2109: 8c 3c 02                  STY CAUX1            ;
210c: 8c 43 02                  STY BOOTAD+1         ;
210f: 8c 41 02                  STY DBSECT           ;
2112: b1 00                     LDA (LINZBS),Y       ;
2114: 8d 0d d2                  STA SEROUT           ;
2117: 8d 3c 02                  STA CAUX1            ;
211a: ad 41 02  loc_211a        LDA DBSECT           ;
211d: f0 fb                     BEQ loc_211a         ;
211f: 20 37 20                  JSR sub_2037         ;
2122: a0 02                     LDY #$02             ;
2124: a2 00                     LDX #$00             ;
2126: a9 00     sub_2126        LDA #$00             ;
2128: 8d 39 02                  STA $0239            ;
212b: 8c 4c 02                  STY UNK_BYTE_024C    ;
212e: 8e 4d 02                  STX UNK_BYTE_024D    ;
2131: ee 39 02                  INC $0239            ;
2134: a9 00                     LDA #$00             ;
2136: 8d 57 02                  STA LINBUF+16        ;
2139: 18                        CLC                  ;
213a: a9 70                     LDA #$70             ;
213c: 85 00                     STA LINZBS           ;
213e: 69 01                     ADC #$01             ;
2140: 8d 3a 02                  STA CDEVIC           ;
2143: a9 02                     LDA #$02             ;
2145: 85 01                     STA LINZBS+1         ;
2147: 8d 3b 02                  STA CCOMND           ;
214a: a9 ff                     LDA #$ff             ;
214c: 8d 45 02                  STA $0245            ;
214f: 20 8e 21                  JSR sub_218e         ;
2152: a0 ff                     LDY #$ff             ;
2154: ad 3d 02                  LDA CAUX2            ;
2157: c9 01                     CMP #$01             ;
2159: d0 1b                     BNE loc_2176         ;
215b: ad 70 02                  LDA PADDL0           ;
215e: c9 41                     CMP #$41             ;
2160: f0 24                     BEQ loc_2186         ;
2162: c9 43                     CMP #$43             ;
2164: f0 20                     BEQ loc_2186         ;
2166: c9 45                     CMP #$45             ;
2168: d0 07                     BNE loc_2171         ;
216a: a9 90                     LDA #$90             ;
216c: 8d 3d 02                  STA CAUX2            ;
216f: d0 05                     BNE loc_2176         ;
2171: a9 8b     loc_2171        LDA #$8b             ;
2173: 8d 3d 02                  STA CAUX2            ;
2176: ad 3d 02  loc_2176        LDA CAUX2            ;
2179: c9 8a                     CMP #$8a             ;
217b: f0 07                     BEQ loc_2184         ;
217d: a9 ff                     LDA #$ff             ;
217f: 8d 57 02                  STA LINBUF+16        ;
2182: d0 02                     BNE loc_2186         ;
2184: a0 00     loc_2184        LDY #$00             ;
2186: ad 3d 02  loc_2186        LDA CAUX2            ;
2189: 8d 38 02                  STA $0238            ;
218c: 98                        TYA                  ;
218d: 60                        RTS                  ; Return to caller

218e: a9 00     sub_218e        LDA #$00             ;
2190: 8d 3c 02                  STA CAUX1            ;
2193: 8d 42 02                  STA BOOTAD           ;
2196: 8d 40 02                  STA DFLAGS           ;
2199: a9 01                     LDA #$01             ;
219b: 8d 3d 02                  STA CAUX2            ;
219e: 20 b7 21                  JSR sub_21b7         ;
21a1: a9 3c                     LDA #$3c             ;
21a3: 8d 03 d3                  STA PBCTL            ;
21a6: ad 39 02  loc_21a6        LDA $0239            ;
21a9: f0 06                     BEQ loc_21b1         ;
21ab: ad 40 02                  LDA DFLAGS           ;
21ae: f0 f6                     BEQ loc_21a6         ;
21b0: 60                        RTS                  ; Return to caller
21b1: a9 8a     loc_21b1        LDA #$8a             ;
21b3: 8d 3d 02                  STA CAUX2            ;
21b6: 60                        RTS                  ; Return to caller

21b7: a9 07     sub_21b7        LDA #$07             ;
21b9: 2d 37 02                  AND dat_0237         ;
21bc: 09 10                     ORA #$10             ;
21be: 8d 37 02                  STA dat_0237         ;
21c1: 8d 0f d2                  STA SKCTL            ;
21c4: 8d 0a d2                  STA SKRES            ;
21c7: a9 c7                     LDA #$c7             ;
21c9: 2d 36 02                  AND dat_0236         ;
21cc: 09 20                     ORA #$20             ;
21ce: 4c 1d 20                  JMP loc_201d         ;
21d1: 18        sub_21d1        CLC                  ;
21d2: a9 00                     LDA #$00             ;
21d4: 85 00                     STA LINZBS           ;
21d6: 6d 34 02                  ADC LPENH            ;
21d9: 8d 3a 02                  STA CDEVIC           ;
21dc: a9 01                     LDA #$01             ;
21de: 85 01                     STA LINZBS+1         ;
21e0: 6d 35 02                  ADC LPENV            ;
21e3: 8d 3b 02                  STA CCOMND           ;
21e6: 60                        RTS                  ; Return to caller

; TODO: Where is this IRQ handler referenced?
;    Also note that A is not pushed, but it is popped
21e7: 98                        TYA                  ; Save value of Y
21e8: 48                        PHA                  ;     to restore later
21e9: ad 0f d2                  LDA SKSTAT           ;
21ec: 8d 0a d2                  STA SKRES            ;
21ef: 30 05                     BMI loc_21f6         ;
21f1: a0 8c                     LDY #$8c             ;
21f3: 8c 3d 02                  STY CAUX2            ;
21f6: 29 20     loc_21f6        AND #$20             ;
21f8: d0 05                     BNE loc_21ff         ;
21fa: a0 8e                     LDY #$8e             ;
21fc: 8c 3d 02                  STY CAUX2            ;
21ff: ad 42 02  loc_21ff        LDA BOOTAD           ;
2202: f0 16                     BEQ loc_221a         ;
2204: ad 0d d2                  LDA $d20d            ;
2207: cd 3c 02                  CMP CAUX1            ;
220a: f0 05                     BEQ loc_2211         ;
220c: a0 8f     loc_220c        LDY #$8f             ;
220e: 8c 3d 02                  STY CAUX2            ;
2211: a9 ff     loc_2211        LDA #$ff             ;
2213: 8d 40 02                  STA DFLAGS           ;
2216: 68        loc_2216        PLA                  ; Restore previous
2217: a8                        TAY                  ;     value of Y
2218: 68                        PLA                  ; Restore previous value of A
2219: 40                        RTI                  ; Return from interrupt handler
221a: ad 0d d2  loc_221a        LDA $d20d            ;
221d: a0 00                     LDY #$00             ;
221f: 91 00                     STA (LINZBS),Y       ;
2221: 18                        CLC                  ;
2222: 6d 3c 02                  ADC CAUX1            ;
2225: 69 00                     ADC #$00             ;
2227: 8d 3c 02                  STA CAUX1            ;
222a: e6 00                     INC LINZBS           ;
222c: d0 02                     BNE loc_2230         ;
222e: e6 01                     INC LINZBS+1         ;
2230: a5 00     loc_2230        LDA LINZBS           ;
2232: cd 3a 02                  CMP CDEVIC           ;
2235: a5 01                     LDA LINZBS+1         ;
2237: ed 3b 02                  SBC CCOMND           ;
223a: 90 da                     BCC loc_2216         ;
223c: ad 45 02                  LDA $0245            ;
223f: f0 07                     BEQ loc_2248         ;
2241: a9 00                     LDA #$00             ;
2243: 8d 45 02                  STA $0245            ;
2246: f0 c9                     BEQ loc_2211         ; ?? Always true? Seems like it should be
2248: a9 ff     loc_2248        LDA #$ff             ;
224a: 8d 42 02                  STA BOOTAD           ;
224d: d0 c7                     BNE loc_2216         ; ?? Always true? Seems like it should be

; TODO: Where is this IRQ handler referenced? (it does seem like a separate handler from the previous)
;    Also note that A is not pushed, but it is popped
224f: 98                        TYA                  ; Preserve value
2250: 48                        PHA                  ;     of Y to restore later
2251: e6 00                     INC LINZBS           ;
2253: d0 02                     BNE loc_2257         ;
2255: e6 01                     INC LINZBS+1         ;
2257: a5 00     loc_2257        LDA LINZBS           ;
2259: cd 3a 02                  CMP CDEVIC           ;
225c: a5 01                     LDA LINZBS+1         ;
225e: ed 3b 02                  SBC CCOMND           ;
2261: 90 21                     BCC loc_2284         ;
2263: ad 43 02                  LDA BOOTAD+1         ;
2266: d0 0d                     BNE loc_2275         ;
2268: ad 3c 02                  LDA CAUX1            ;
226b: 8d 0d d2                  STA SEROUT           ;
226e: a9 ff                     LDA #$ff             ;
2270: 8d 43 02                  STA BOOTAD+1         ;
2273: d0 0b                     BNE loc_2280         ;
2275: ad 36 02  loc_2275        LDA dat_0236         ;
2278: 09 08                     ORA #$08             ;
227a: 8d 36 02                  STA dat_0236         ;
227d: 8d 0e d2                  STA IRQEN            ;
2280: 68        loc_2280        PLA                  ; Restore Y to
2281: a8                        TAY                  ;     previous value
2282: 68                        PLA                  ; Restore A to previous value
2283: 40                        RTI                  ; Return from interrupt handler
2284: a0 00     loc_2284        LDY #$00             ;
2286: b1 00                     LDA (LINZBS),Y       ;
2288: 8d 0d d2                  STA SEROUT           ;
228b: 18                        CLC                  ;
228c: 6d 3c 02                  ADC CAUX1            ;
228f: 69 00                     ADC #$00             ;
2291: 8d 3c 02                  STA CAUX1            ;
2294: 4c 80 22                  JMP loc_2280         ; Jump up to return code (restore A,Y and RTI)

; TODO: Where is this IRQ handler referenced?
;    Also note that A is not pushed, but it is popped
2297: ad 43 02                  LDA BOOTAD+1         ;
229a: f0 0e                     BEQ loc_22aa         ;
229c: 8d 41 02                  STA DBSECT           ;
229f: ad 36 02                  LDA dat_0236         ;
22a2: 29 f7                     AND #$f7             ;
22a4: 8d 36 02                  STA dat_0236         ;
22a7: 8d 0e d2                  STA IRQEN            ;
22aa: 68        loc_22aa        PLA                  ; Restore A to previous value
22ab: 40                        RTI                  ; Return from interrupt handler

; TODO: How is this code executed?
22ac: 48                        PHA                  ; Preserve value of A to restore later
22ad: ad 0e d2                  LDA IRQST            ;
22b0: 29 20                     AND #$20             ;
22b2: d0 0e                     BNE loc_22c2         ;
22b4: a9 df                     LDA #$df             ;
22b6: 8d 0e d2                  STA IRQEN            ;
22b9: ad 36 02                  LDA dat_0236         ;
22bc: 8d 0e d2                  STA IRQEN            ;
22bf: 6c 0a 02                  JMP (VSERIN)         ;
22c2: 8a        loc_22c2        TXA                  ; Preserve value of X
22c3: 48                        PHA                  ;     to restore later
22c4: a2 02                     LDX #$02             ;
22c6: bd 01 23  loc_22c6        LDA dat_2301,X       ;
22c9: e0 01                     CPX #$01             ;
22cb: d0 05                     BNE loc_22d2         ;
22cd: 2d 36 02                  AND dat_0236         ;
22d0: f0 05                     BEQ loc_22d7         ;
22d2: 2c 0e d2  loc_22d2        BIT IRQST            ;
22d5: f0 05                     BEQ loc_22dc         ;
22d7: ca        loc_22d7        DEX                  ;
22d8: 10 ec                     BPL loc_22c6         ;
22da: 30 1b                     BMI loc_22f7         ;
22dc: 49 ff     loc_22dc        EOR #$ff             ;
22de: 8d 0e d2                  STA IRQEN            ;
22e1: ad 36 02                  LDA dat_0236         ;
22e4: 8d 0e d2                  STA IRQEN            ;
22e7: bd 04 23                  LDA dat_2304,X       ;
22ea: 8d f5 22                  STA loc_22f5         ;
22ed: a9 02                     LDA #$02             ;
22ef: 8d f6 22                  STA loc_22f6         ;
22f2: 68                        PLA                  ; Restore X to
22f3: aa                        TAX                  ;     previous value
22f4: 6c ff ff                  JMP ($ffff)          ; ???
22f7: 68        loc_22f7        PLA                  ;
22f8: aa                        TAX                  ;
22f9: ad 00 d3                  LDA PORTA            ;
22fc: ad 01 d3                  LDA PORTB            ;
22ff: 68                        PLA                  ; Restore A to previous value
2300: 40                        RTI                  ; Return from interrupt handler

2301: 40 08 10  dat_2301        .BYTE $40,$08,$10    ;
2304: 08 0e 0c  dat_2304        .BYTE $08,$0e,$0c    ;
2307: 22 22 2e  dat_2307        .BYTE $22,$22,$2e    ;

230a: a9 f5     loc_230a        LDA $f9              ; Set the
230c: 8d 02 d4                  STA DLIST            ;     Display List
230f: a9 19                     LDA #$19             ;     Address
2311: 8d 03 d4                  STA DLIST+1          ;     to $19f9
2314: a9 40                     LDA #$40             ;
2316: 8d 0e d4                  STA NMIEN            ;
2319: a9 21                     LDA #$21             ;
231b: 8d 00 d4                  STA DMACTL           ;
231e: ad 39 02                  LDA $0239            ;
2321: f0 21                     BEQ loc_2344         ;
2323: ad 4c 02                  LDA UNK_BYTE_024C    ;
2326: 0d 4d 02                  ORA UNK_BYTE_024D    ;
2329: f0 19                     BEQ loc_2344         ;
232b: 38                        SEC                  ;
232c: ad 4c 02                  LDA UNK_BYTE_024C    ;
232f: e9 01                     SBC #$01             ;
2331: 8d 4c 02                  STA UNK_BYTE_024C    ;
2334: ad 4d 02                  LDA UNK_BYTE_024D    ;
2337: e9 00                     SBC #$00             ;
2339: 8d 4d 02                  STA UNK_BYTE_024D    ;
233c: 0d 4c 02                  ORA UNK_BYTE_024C    ;
233f: d0 03                     BNE loc_2344         ;
2341: 8d 39 02                  STA $0239            ;
2344: 4c 4b 24  loc_2344        JMP loc_244b         ;

2347: d8        HANDLE_VBLKI    CLD                  ;
2348: ee 52 02                  INC VBLK_COUNTER     ;
234b: ae b9 18                  LDX CUR_DLIST_NUM    ;
234e: bd 07 23                  LDA dat_2307,X       ;
2351: 8d 00 d4                  STA DMACTL           ;
2354: a9 14                     LDA #$14             ; Set the character
2356: 8d 09 d4                  STA CHBASE           ;     set address to $1400 (DUNGEON_CHRSET)
2359: ad 53 02                  LDA dat_0253         ;
235c: f0 11                     BEQ loc_236f         ;
235e: 30 aa                     BMI loc_230a         ;
2360: ce 53 02                  DEC dat_0253         ;
2363: a9 0a                     LDA #$0a             ; Set the
2365: 8d 02 d4                  STA DLIST            ;     display
2368: a9 1a                     LDA #$1a             ;     list address
236a: 8d 03 d4                  STA DLIST+1          ;     to $1a0a [DLIST_1a0a]
236d: d0 d5                     BNE loc_2344         ;
236f: ad 54 02  loc_236f        LDA CUR_DLISTL       ; Set the
2372: 8d 02 d4                  STA DLIST            ;     display list addresss
2375: ad 55 02                  LDA CUR_DLISTH       ;     to the value
2378: 8d 03 d4                  STA DLIST+1          ;     stored @ CUR_DLISTL/H
237b: ad 48 02                  LDA CUR_VDSLSTL      ; Set the NMI Display List Interrupts (DLI)
237e: 8d 00 02                  STA VDSLST           ;     handler address
2381: ad 49 02                  LDA CUR_VDSLSTH      ;     to the value
2384: 8d 01 02                  STA VDSLST+1         ;     stored @ CUR_VDSLSTL/H
2387: a9 c0                     LDA #$c0             ;
2389: 8d 0e d4                  STA NMIEN            ;
238c: ad 56 02                  LDA UNK_BYTE_0256    ;
238f: f0 03                     BEQ loc_2394         ;
2391: 4c 4b 24                  JMP loc_244b         ;
2394: ee 56 02  loc_2394        INC UNK_BYTE_0256    ;
2397: ae b9 18                  LDX CUR_DLIST_NUM    ;
239a: ca                        DEX                  ;
239b: d0 04                     BNE loc_23a1         ;
239d: ca                        DEX                  ;
239e: 8e 11 d0                  STX GRAFM            ;
23a1: a2 05     loc_23a1        LDX #$05             ;
23a3: bd 1c 1c  loc_23a3        LDA dat_1c1c,X       ;
23a6: 9d 15 d0                  STA COLPM3,X         ;
23a9: ca                        DEX                  ;
23aa: d0 f7                     BNE loc_23a3         ;
23ac: 8e b8 18                  STX UNK_1C19OFS_18B8 ;
23af: 8e b7 18                  STX dat_18b7         ;
23b2: ae b9 18                  LDX CUR_DLIST_NUM    ;
23b5: d0 03                     BNE loc_23ba         ;
23b7: 8e 18 d0                  STX COLPF2           ;
23ba: 20 7a 26  loc_23ba        JSR sub_267a         ;
23bd: a6 32                     LDX dat_0032_L           ;
23bf: 30 6d                     BMI loc_242e         ;
23c1: 2c 55 19                  BIT loc_1955         ;
23c4: 10 03                     BPL loc_23c9         ;
23c6: 20 e5 24                  JSR sub_24e5         ;
23c9: e6 33     loc_23c9        INC BUFRHI           ;
23cb: a5 33                     LDA BUFRHI           ;
23cd: c9 04                     CMP #$04             ;
23cf: 90 5d                     BCC loc_242e         ;
23d1: 86 33                     STX BUFRHI           ;
23d3: 2c 55 19                  BIT loc_1955         ;
23d6: 30 17                     BMI loc_23ef         ;
23d8: ce ff 24                  DEC loc_24ff         ;
23db: 10 08                     BPL loc_23e5         ;
23dd: a9 02                     LDA #$02             ;
23df: 8d ff 24                  STA loc_24ff         ;
23e2: 20 e5 24                  JSR sub_24e5         ;
23e5: e6 34     loc_23e5        INC BFENLO           ;
23e7: a5 34                     LDA BFENLO           ;
23e9: c9 3c                     CMP #$3c             ;
23eb: 90 41                     BCC loc_242e         ;
23ed: 86 34                     STX BFENLO           ;
23ef: a5 50     loc_23ef        LDA TEMP             ;
23f1: d0 03                     BNE loc_23f6         ;
23f3: ee 62 19                  INC loc_1962         ;
23f6: 86 50     loc_23f6        STX TEMP             ;
23f8: 86 50                     STX TEMP             ;
23fa: e6 35                     INC BFENHI           ;
23fc: a5 35                     LDA BFENHI           ;
23fe: c9 3c                     CMP #$3c             ;
2400: 90 2c                     BCC loc_242e         ;
2402: 86 35                     STX BFENHI           ;
2404: e6 36                     INC CRETRY           ;
2406: a5 36                     LDA CRETRY           ;
2408: c9 18                     CMP #$18             ;
240a: 90 22                     BCC loc_242e         ;
240c: 86 36                     STX CRETRY           ;
240e: e6 3b                     INC CHKSNT           ;
2410: d0 02                     BNE loc_2414         ;
2412: e6 3c                     INC NOCKSM           ;
2414: e6 37     loc_2414        INC DRETRY           ;
2416: a5 37                     LDA DRETRY           ;
2418: c9 1e                     CMP #$1e             ;
241a: 90 12                     BCC loc_242e         ;
241c: 86 37                     STX DRETRY           ;
241e: e6 38                     INC BUFRFL           ;
2420: a5 38                     LDA BUFRFL           ;
2422: c9 0c                     CMP #$0c             ;
2424: 90 08                     BCC loc_242e         ;
2426: 86 38                     STX BUFRFL           ;
2428: e6 3a                     INC XMTDON           ;
242a: d0 02                     BNE loc_242e         ;
242c: e6 39                     INC RECVDN           ;
242e: a2 00     loc_242e        LDX #$00             ;
2430: ad 52 02                  LDA VBLK_COUNTER     ;
2433: 29 3f                     AND #$3f             ;
2435: c9 08                     CMP #$08             ;
2437: b0 01                     BCS loc_243a         ;
2439: e8                        INX                  ;
243a: 8e 01 d4  loc_243a        STX CHACTL           ;
243d: ad 2f 02                  LDA SDMCTL           ;
2440: 10 03                     BPL loc_2445         ;
2442: 20 51 24                  JSR sub_2451         ;
2445: 20 03 25  loc_2445        JSR sub_2503         ;
2448: ce 56 02                  DEC UNK_BYTE_0256    ;
244b: 68        loc_244b        PLA                  ; Restore the original
244c: a8                        TAY                  ;     value of Y
244d: 68                        PLA                  ; Restore the original
244e: aa                        TAX                  ;     value of X
244f: 68                        PLA                  ; Restore the original value of A
2450: 40                        RTI                  ; Return from interrupt handler

2451: 6c 24 02  sub_2451        JMP (VVBLKD)         ;
2454: ad 52 02  WAIT_FOR_VBLK_A  LDA VBLK_COUNTER    ;
2457: cd 52 02  VBLK_WAIT_LOOP_A  CMP VBLK_COUNTER   ;
245a: f0 fb                     BEQ VBLK_WAIT_LOOP_A ;
245c: 60                        RTS                  ; Return to caller

245d: a9 07     sub_245d        LDA #$07             ;
245f: 8d 37 02                  STA dat_0237         ;
2462: a9 80                     LDA #$80             ;
2464: 8d 53 02                  STA dat_0253    ;
2467: a2 00                     LDX #$00             ;
2469: 8e 36 02                  STX dat_0236         ;
246c: 8e 0e d2                  STX IRQEN            ;
246f: 20 54 24                  JSR WAIT_FOR_VBLK_A  ;
2472: 8e 1a d0                  STX COLBK            ;
2475: 8e 18 d0                  STX COLPF2           ;
2478: 8a                        TXA                  ;
2479: 8d 9c 19                  STA dat_199c         ;
247c: a2 03                     LDX #$03             ;
247e: 9d 0d d0  loc_247e        STA GRAFP0,X         ;
2481: 9d 00 d2                  STA AUDF1,X          ;
2484: 9d 04 d2                  STA AUDF3,X          ;
2487: ca                        DEX                  ;
2488: 10 f4                     BPL loc_247e         ;
248a: 8e 17 d0                  STX COLPF1           ;
248d: 60                        RTS                  ; Return to caller

248e: a9 52     sub_248e        LDA #$52             ;
2490: a2 40                     LDX #$40             ;
2492: a0 03                     LDY #$03             ;
2494: 8d 31 02  sub_2494        STA SDLST+1          ;
2497: 8c 47 02                  STY LINBUF           ;
249a: 8e 3d 02                  STX CAUX2            ;
249d: 8e 46 02                  STX DSKTIM           ;
24a0: 4c 4e 20                  JMP loc_204e         ;
24a3: a9 00                     LDA #$00             ;
24a5: 8d 00 01                  STA dat_0100         ;
24a8: 8d 35 02                  STA LPENV            ;
24ab: a9 04                     LDA #$04             ;
24ad: 8d 34 02                  STA LPENH            ;
24b0: a9 53                     LDA #$53             ;
24b2: a2 40                     LDX #$40             ;
24b4: a0 03                     LDY #$03             ;
24b6: 20 94 24                  JSR sub_2494         ;
24b9: 08                        PHP                  ;
24ba: a9 80                     LDA #$80             ;
24bc: 8d 34 02                  STA LPENH            ;
24bf: a9 00                     LDA #$00             ;
24c1: 8d 35 02                  STA LPENV            ;
24c4: 28                        PLP                  ;
24c5: 60                        RTS                  ; Return to caller

24c6: 08        loc_24c6        PHP                  ;
24c7: a9 40                     LDA #$40             ;
24c9: 8d 36 02                  STA dat_0236         ;
24cc: 8d 0e d2                  STA IRQEN            ;
24cf: a9 03                     LDA #$03             ;
24d1: 8d 0f d2                  STA SKCTL            ;
24d4: a9 00                     LDA #$00             ;
24d6: 8d 08 d2                  STA AUDCTL           ;
24d9: a9 01                     LDA #$01             ;
24db: 8d 53 02                  STA dat_0253         ;
24de: ad 53 02  loc_24de        LDA dat_0253         ;
24e1: d0 fb                     BNE loc_24de         ;
24e3: 28                        PLP                  ;
24e4: 60                        RTS                  ; Return to caller

24e5: ad 53 04  sub_24e5        LDA DISP_TIME_SPINNER ;
24e8: c9 7b                     CMP #$7b             ;
24ea: 90 0e                     BCC loc_24fa         ;
24ec: ee f0 24                  INC loc_24f0         ;
24ef: a9 ff                     LDA #$ff             ;
24f1: 29 03                     AND #$03             ;
24f3: aa                        TAX                  ;
24f4: bd fb 24                  LDA dat_24fb,X       ;
24f7: 8d 53 04                  STA DISP_TIME_SPINNER ;
24fa: 60        loc_24fa        RTS                  ; Return to caller

24fb: 7b 7c 7d 7e 02 00 00 00  dat_24fb  .BYTE $7b,$7c  ; {|}~....

2503: ad 9c 19  sub_2503        LDA dat_199c         ;
2506: 30 03                     BMI loc_250b         ;
2508: 4c 4f 25                  JMP loc_254f         ;
250b: 29 7f     loc_250b        AND #$7f             ;
250d: aa                        TAX                  ;
250e: a9 00                     LDA #$00             ;
2510: a0 08                     LDY #$08             ;
2512: 8d 9c 19                  STA dat_199c         ;
2515: 99 00 d2  loc_2515        STA AUDF1,Y          ;
2518: 88                        DEY                  ;
2519: 10 fa                     BPL loc_2515         ;
251b: bd 23 26                  LDA dat_2623,X       ;
251e: 85 f0                     STA FCHRFLG          ;
2520: bd 29 26                  LDA dat_2629,X       ;
2523: 85 f1                     STA DIGRT            ;
2525: bd 17 26  loc_2525        LDA dat_2617,X       ;
2528: 85 f2                     STA CIX              ;
252a: bd 1d 26                  LDA dat_261d,X       ;
252d: 85 f3                     STA INBUFF           ;
252f: a9 01                     LDA #$01             ;
2531: 8d be 25                  STA dat_25be         ;
2534: a9 04                     LDA #$04             ;
2536: 8d bf 25                  STA dat_25bf         ;
2539: bd 11 26                  LDA dat_2611,X       ;
253c: 8d c0 25                  STA dat_25c0         ;
253f: 8d c1 25                  STA dat_25c1         ;
2542: 8e c3 25                  STX dat_25c3         ;
2545: bc e5 25                  LDY dat_25e5,X       ;
2548: 8c 08 d2                  STY AUDCTL           ;
254b: 8d 9c 19                  STA dat_199c         ;
254e: 60                        RTS                  ; Return to caller
254f: d0 01     loc_254f        BNE loc_2552         ;
2551: 60        loc_2551        RTS                  ; Return to caller
2552: ad c0 25  loc_2552        LDA dat_25c0         ;
2555: 0d c1 25                  ORA dat_25c1         ;
2558: 8d 9c 19                  STA dat_199c         ;
255b: f0 f4                     BEQ loc_2551         ;
255d: a9 01                     LDA #$01             ;
255f: 8d c4 25                  STA dat_25c4         ;
2562: 20 6b 25  loc_2562        JSR sub_256b         ;
2565: ce c4 25                  DEC dat_25c4         ;
2568: 10 f8                     BPL loc_2562         ;
256a: 60                        RTS                  ; Return to caller

256b: ae c4 25  sub_256b        LDX dat_25c4         ;
256e: de be 25                  DEC dat_25be,X       ;
2571: d0 38                     BNE loc_25ab         ;
2573: de c0 25                  DEC dat_25c0,X       ;
2576: f0 32                     BEQ loc_25aa         ;
2578: bc c0 25                  LDY dat_25c0,X       ;
257b: 88                        DEY                  ;
257c: b1 f2                     LDA (CIX),Y          ;
257e: 9d be 25                  STA dat_25be,X       ;
2581: b1 f0                     LDA (FCHRFLG),Y      ;
2583: 8d c2 25                  STA dat_25c2         ;
2586: 8a                        TXA                  ;
2587: 0a                        ASL                  ;
2588: 0a                        ASL                  ;
2589: a8                        TAY                  ;
258a: 4a                        LSR                  ;
258b: 6d c2 25                  ADC dat_25c2         ;
258e: 99 00 d2                  STA AUDF1,Y          ;
2591: 18                        CLC                  ;
2592: 69 01                     ADC #$01             ;
2594: 99 02 d2                  STA AUDF2,Y          ;
2597: ae c3 25                  LDX dat_25c3         ;
259a: bd eb 25                  LDA loc_25eb,X       ;
259d: c0 00                     CPY #$00             ;
259f: d0 03                     BNE loc_25a4         ;
25a1: 18                        CLC                  ;
25a2: 69 03                     ADC #$03             ;
25a4: 99 01 d2  loc_25a4        STA AUDC1,Y          ;
25a7: 99 02 d2                  STA AUDF2,Y          ;
25aa: 60        loc_25aa        RTS                  ; Return to caller
25ab: bd be 25  loc_25ab        LDA dat_25be,X       ;
25ae: c9 01                     CMP #$01             ;
25b0: d0 0b                     BNE loc_25bd         ;
25b2: 8a                        TXA                  ;
25b3: 0a                        ASL                  ;
25b4: aa                        TAX                  ;
25b5: a9 00                     LDA #$00             ;
25b7: 9d 01 d2                  STA AUDC1,X          ;
25ba: 9d 03 d2                  STA AUDC2,X          ;
25bd: 60        loc_25bd        RTS                  ; Return to caller

25be: 00        dat_25be        .BYTE $00            ; .
25bf: 00        dat_25bf        .BYTE $00            ; .
25c0: 00        dat_25c0        .BYTE $00            ; .
25c1: 00        dat_25c1        .BYTE $00            ; .
25c2: 00        dat_25c2        .BYTE $00            ; .
25c3: 00        dat_25c3        .BYTE $00            ; .
25c4: 00 cc b6 ad f0 ff ee f8  dat_25c4  .BYTE $00,$cc,$b6,$ad,$f0,$ff,$ee,$f8  ; ........
25cc: 88 88 72 99 88 66 fc ad   .BYTE $88,$88,$72,$99,$88,$66,$fc,$ad  ; ..r..f..
25d4: a2 99 f3 66 4c 4c 5b 5b   .BYTE $a2,$99,$f3,$66,$4c,$4c,$5b,$5b  ; ...fLL[[
25dc: 5b 5b 79 90 80 79 60 55   .BYTE $5b,$5b,$79,$90,$80,$79,$60,$55  ; [[y..y`U
25e4: 60                        .BYTE $60            ; `
25e5: 00 40 04 07 07 06 a1 01  dat_25e5  .BYTE $00,$40,$04,$07,$07,$06,$a1,$01  ; .@......
25ed: a1 a1 a1 a1 40 08 08 04   .BYTE $a1,$a1,$a1,$a1,$40,$08,$08,$04  ; ....@...
25f5: 01 03 03 10 08 08 06 05   .BYTE $01,$03,$03,$10,$08,$08,$06,$05  ; ........
25fd: 05 50 2f 08 26 2f 61 0c   .BYTE $05,$50,$2f,$08,$26,$2f,$61,$0c  ; .P/.&/a.
2605: 0c 17 0c 17 0c 20 40 08   .BYTE $0c,$17,$0c,$17,$0c,$20,$40,$08  ; ..... @.
260d: 08 08 08 08               .BYTE $08,$08,$08,$08  ; ....
2611: 04 05 07 06 08 08  dat_2611  .BYTE $04,$05,$07,$06,$08,$08  ; ......
2617: f1 f4 f8 fe 03 0a  dat_2617  .BYTE $f1,$f4,$f8,$fe,$03,$0a  ; ......
261d: 25 25 25 25 26 26  dat_261d  .BYTE $25,$25,$25,$25,$26,$26  ; %%%%&&
2623: c5 c8 cc d2 d7 de  dat_2623  .BYTE $c5,$c8,$cc,$d2,$d7,$de  ; ......
2629: 25 25 25 25 25 25  dat_2629  .BYTE $25,$25,$25,$25,$25,$25  ; %%%%%%

262f: ad 10 d0  sub_262f        LDA TRIG0            ;
2632: 4a                        LSR                  ;
2633: ad 00 d3                  LDA PORTA            ;
2636: 29 0f                     AND #$0f             ;
2638: 90 02                     BCC loc_263c         ;
263a: 09 80                     ORA #$80             ;
263c: 49 8f     loc_263c        EOR #$8f             ;
263e: 05 2f                     ORA CIOCHR           ;
2640: 85 2e                     STA ICAX5Z           ;
2642: 60                        RTS                  ; Return to caller

2643: a5 30     sub_2643        LDA STATUS           ;
2645: 30 09                     BMI loc_2650         ;
2647: 85 31                     STA CHKSUM           ;
2649: 09 80                     ORA #$80             ;
264b: 85 30                     STA STATUS           ;
264d: 29 7f                     AND #$7f             ;
264f: 60                        RTS                  ; Return to caller
2650: 85 31     loc_2650        STA CHKSUM           ;
2652: 60                        RTS                  ; Return to caller

; TODO: How does this IRQ handler get called?
; TODO: A doesn't seem to be preserved before being updated,
;   but it is popped from the stack, so it's likely to be called
;   from a context where A has already been pushed to the stack.
;   Or that's a bug :)
2653: 8a                        TXA                  ; Save original
2654: 48                        PHA                  ;     value of X
2655: a5 30                     LDA STATUS           ;
2657: 10 1d                     BPL loc_2676         ;
2659: ad ff 18                  LDA loc_18ff         ;
265c: d0 18                     BNE loc_2676         ;
265e: ad 0f d2                  LDA SKSTAT           ;
2661: 29 20                     AND #$20             ;
2663: f0 11                     BEQ loc_2676         ;
2665: a9 04                     LDA #$04             ;
2667: 8d ff 18                  STA loc_18ff         ;
266a: ae 09 d2                  LDX KBCODE           ;
266d: 30 07                     BMI loc_2676         ;
266f: bd d1 26                  LDA dat_26d1,X       ;
2672: 30 02                     BMI loc_2676         ;
2674: 85 30                     STA STATUS           ;
2676: 68        loc_2676        PLA                  ; Restore original
2677: aa                        TAX                  ;     value of X
2678: 68                        PLA                  ; Restore original value of A
2679: 40                        RTI                  ; Return from interrupt handler

267a: a9 08     sub_267a        LDA #$08             ;
267c: 8d 1f d0                  STA CONSOL           ;
267f: a5 30                     LDA STATUS           ;
2681: 10 1f                     BPL loc_26a2         ;
2683: ad 1f d0                  LDA CONSOL           ;
2686: c9 07                     CMP #$07             ;
2688: d0 15                     BNE loc_269f         ;
268a: ad 00 19                  LDA loc_1900         ;
268d: c9 07                     CMP #$07             ;
268f: f0 0e                     BEQ loc_269f         ;
2691: a2 10                     LDX #$10             ;
2693: 4a                        LSR                  ;
2694: 90 05                     BCC loc_269b         ;
2696: e8                        INX                  ;
2697: 4a                        LSR                  ;
2698: 90 01                     BCC loc_269b         ;
269a: e8                        INX                  ;
269b: 86 30     loc_269b        STX STATUS           ;
269d: a9 07                     LDA #$07             ;
269f: 8d 00 19  loc_269f        STA loc_1900         ;
26a2: a0 00     loc_26a2        LDY #$00             ;
26a4: ad 0f d2                  LDA SKSTAT           ;
26a7: 29 04                     AND #$04             ;
26a9: d0 12                     BNE loc_26bd         ;
26ab: a2 04                     LDX #$04             ;
26ad: ad 09 d2                  LDA KBCODE           ;
26b0: dd 51 27  loc_26b0        CMP loc_2751,X       ;
26b3: f0 05                     BEQ loc_26ba         ;
26b5: ca                        DEX                  ;
26b6: 10 f8                     BPL loc_26b0         ;
26b8: 30 03                     BMI loc_26bd         ;
26ba: bc 56 27  loc_26ba        LDY loc_2756,X       ;
26bd: 84 2f     loc_26bd        STY CIOCHR           ;
26bf: ad ff 18                  LDA loc_18ff         ;
26c2: f0 0c                     BEQ loc_26d0         ;
26c4: a0 01                     LDY #$01             ;
26c6: 8c 1f d0                  STY CONSOL           ;
26c9: 88                        DEY                  ;
26ca: 8c 1f d0                  STY CONSOL           ;
26cd: 8c ff 18                  STY loc_18ff         ;
26d0: 60        loc_26d0        RTS                  ; Return to caller

26d1: 6c 6a 3b ff ff 6b 2b 2a  dat_26d1  .BYTE $6c,$6a,$3b,$ff,$ff,$6b,$2b,$2a  ; lj;..k+*
26d9: 6f ff 70 75 0d 69 2d 3d   .BYTE $6f,$ff,$70,$75,$0d,$69,$2d,$3d  ; o.pu.i-=
26e1: 76 3f 63 ff ff 62 78 7a   .BYTE $76,$3f,$63,$ff,$ff,$62,$78,$7a  ; v?c..bxz
26e9: 34 ff 33 36 1b 35 32 31   .BYTE $34,$ff,$33,$36,$1b,$35,$32,$31  ; 4.36.521
26f1: 2c 20 2e 6e ff 6d 2f 3f   .BYTE $2c,$20,$2e,$6e,$ff,$6d,$2f,$3f  ; , .n.m/?
26f9: 72 ff 65 79 ff 74 77 71   .BYTE $72,$ff,$65,$79,$ff,$74,$77,$71  ; r.ey.twq
2701: 39 ff 30 37 08 38 3c 3e   .BYTE $39,$ff,$30,$37,$08,$38,$3c,$3e  ; 9.07.8<>
2709: 66 68 64 ff ff 67 73 61   .BYTE $66,$68,$64,$ff,$ff,$67,$73,$61  ; fhd..gsa
2711: 4c 4a 3a ff ff 4b 5c 5e   .BYTE $4c,$4a,$3a,$ff,$ff,$4b,$5c,$5e  ; LJ:..K\^
2719: 4f ff 50 55 0d 49 2d 3d   .BYTE $4f,$ff,$50,$55,$0d,$49,$2d,$3d  ; O.PU.I-=
2721: 56 3f 43 ff ff 42 58 5a   .BYTE $56,$3f,$43,$ff,$ff,$42,$58,$5a  ; V?C..BXZ
2729: 24 ff 23 26 ff 25 22 21   .BYTE $24,$ff,$23,$26,$ff,$25,$22,$21  ; $.#&.%"!
2731: 5b 20 5d 4e ff 4d 3f 3f   .BYTE $5b,$20,$5d,$4e,$ff,$4d,$3f,$3f  ; [ ]N.M??
2739: 52 ff 45 59 ff 54 57 51   .BYTE $52,$ff,$45,$59,$ff,$54,$57,$51  ; R.EY.TWQ
2741: 28 ff 29 27 ff 40 3c 3e   .BYTE $28,$ff,$29,$27,$ff,$40,$3c,$3e  ; (.)'.@<>
2749: 46 48 44 ff ff 47 53 41   .BYTE $46,$48,$44,$ff,$ff,$47,$53,$41  ; FHD..GSA
2751: 0d 01 05 00 21 01 04 02   .BYTE $0d,$01,$05,$00,$21,$01,$04,$02  ; ....!...
2759: 08 80                     .BYTE $08,$80        ; ..

275b: 20 88 27  sub_275b        JSR sub_2788         ;
275e: 20 5d 24                  JSR sub_245d         ;
2761: 20 a1 28                  JSR sub_28a1         ;
2764: a9 04                     LDA #$04             ;
2766: 8d 0f 19                  STA dat_190f         ;
2769: ad 30 02  loc_2769        LDA SDLST            ;
276c: 29 0f                     AND #$0f             ;
276e: aa                        TAX                  ;
276f: bd 4d 02                  LDA UNK_BYTE_024D,X  ;
2772: 30 05     loc_2772        BMI loc_2779         ;
2774: 20 99 27                  JSR sub_2799         ;
2777: 90 09                     BCC loc_2782         ;
2779: 20 85 27  loc_2779        JSR sub_2785         ;
277c: ce 0f 19                  DEC dat_190f         ;
277f: d0 e8                     BNE loc_2769         ;
2781: 38                        SEC                  ;
2782: 4c c6 24  loc_2782        JMP loc_24c6         ;

2785: ee 30 02  sub_2785        INC SDLST            ;
2788: ad 30 02  sub_2788        LDA SDLST            ;
278b: c9 31                     CMP #$31             ;
278d: 90 04                     BCC loc_2793         ;
278f: c9 35                     CMP #$35             ;
2791: 90 05                     BCC loc_2798         ;
2793: a9 31     loc_2793        LDA #$31             ;
2795: 8d 30 02                  STA SDLST            ;
2798: 60        loc_2798        RTS                  ; Return to caller

2799: 20 37 29  sub_2799        JSR sub_2937         ;
279c: 30 38                     BMI loc_27d6         ;
279e: 20 79 29  loc_279e        JSR sub_2979         ;
27a1: 30 33                     BMI loc_27d6         ;
27a3: a9 00                     LDA #$00             ;
27a5: 8d 0e 19                  STA dat_190e         ;
27a8: a8                        TAY                  ;
27a9: b9 00 01  loc_27a9        LDA dat_0100,Y       ;
27ac: 91 09                     STA (dat_0009_L),Y   ;
27ae: 38                        SEC                  ;
27af: a5 0b                     LDA dat_0009_H+1     ;
27b1: e9 01                     SBC #$01             ;
27b3: 85 0b                     STA dat_0009_H+1     ;
27b5: b0 02                     BCS loc_27b9         ;
27b7: c6 0c                     DEC DOSINI           ;
27b9: 05 0c     loc_27b9        ORA DOSINI           ;
27bb: f0 10                     BEQ loc_27cd         ;
27bd: c8                        INY                  ;
27be: 10 e9                     BPL loc_27a9         ;
27c0: 98                        TYA                  ;
27c1: 18                        CLC                  ;
27c2: 65 09                     ADC dat_0009_L       ;
27c4: 85 09                     STA dat_0009_L       ;
27c6: 90 02                     BCC loc_27ca         ;
27c8: e6 0a                     INC dat_0009_H       ;
27ca: 4c 9e 27  loc_27ca        JMP loc_279e         ;
27cd: a9 00     loc_27cd        LDA #$00             ;
27cf: 8d 0d 19                  STA loc_190d         ;
27d2: 20 de 27                  JSR sub_27de         ;
27d5: 60                        RTS                  ; Return to caller
27d6: 38        loc_27d6        SEC                  ;
27d7: 60                        RTS                  ; Return to caller
27d8: 18                        CLC                  ;
27d9: 24 38                     BIT BUFRFL           ;
27db: 4c c6 24                  JMP loc_24c6         ;

27de: a0 00     sub_27de        LDY #$00             ; Set Y = 0
27e0: a2 00     loc_27e0        LDX #$00             ; Set X = 0
27e2: bd 80 01  loc_27e2        LDA dat_0180,X       ; Copy from $0180 + X
27e5: 99 00 01                  STA dat_0100,Y       ;     to $0100 + Y
27e8: c8                        INY                  ; Add one to Y
27e9: 30 07                     BMI loc_27f2         ; Exit loop after 128 bytes have been copied
27eb: e8                        INX                  ; Add one to X
27ec: e0 10                     CPX #$10             ; If X < 10
27ee: 90 f2                     BCC loc_27e2         ;     Then copy next byte
27f0: b0 ee                     BCS loc_27e0         ; If X >= 10 Then reset X = 0 and copy next byte
27f2: a0 00     loc_27f2        LDY #$00             ;
27f4: 8c 01 19                  STY dat_1901_L       ;
27f7: 8c 02 19                  STY dat_1902_H       ;
27fa: ad 0b 19                  LDA dat_190b_L       ;
27fd: 85 09                     STA dat_0009_L       ;
27ff: ad 0c 19                  LDA dat_190c_H       ;
2802: 85 0a                     STA dat_0009_H       ;
2804: ae 08 19                  LDX loc_1908         ;
2807: f0 1e                     BEQ loc_2827         ;
2809: 86 0c                     STX DOSINI           ;
280b: a2 00                     LDX #$00             ;
280d: b1 09     loc_280d        LDA (dat_0009_L),Y   ;
280f: 4a                        LSR                  ;
2810: 90 02                     BCC loc_2814         ;
2812: 09 80                     ORA #$80             ;
2814: 5d 00 01  loc_2814        EOR dat_0100,X       ;
2817: 91 09                     STA (dat_0009_L),Y   ;
2819: e8                        INX                  ;
281a: 10 02                     BPL loc_281e         ;
281c: a2 00                     LDX #$00             ;
281e: c8        loc_281e        INY                  ;
281f: d0 ec                     BNE loc_280d         ;
2821: e6 0a                     INC dat_0009_H       ;
2823: c6 0c                     DEC DOSINI           ;
2825: d0 e6                     BNE loc_280d         ;
2827: a2 00     loc_2827        LDX #$00             ;
2829: ad 07 19                  LDA dat_1907         ;
282c: f0 17                     BEQ loc_2845         ;
282e: b1 09     loc_282e        LDA (dat_0009_L),Y   ;
2830: 4a                        LSR                  ;
2831: 90 02                     BCC loc_2835         ;
2833: 09 80                     ORA #$80             ;
2835: 5d 00 01  loc_2835        EOR dat_0100,X       ;
2838: 91 09                     STA (dat_0009_L),Y   ;
283a: e8                        INX                  ;
283b: 10 02                     BPL loc_283f         ;
283d: a2 00                     LDX #$00             ;
283f: c8        loc_283f        INY                  ;
2840: cc 07 19                  CPY dat_1907         ;
2843: 90 e9                     BCC loc_282e         ;
2845: ad 0b 19  loc_2845        LDA dat_190b_L       ;
2848: 85 09                     STA dat_0009_L       ;
284a: ad 0c 19                  LDA dat_190c_H       ;
284d: 85 0a                     STA dat_0009_H       ;
284f: a0 00                     LDY #$00             ;
2851: ae 08 19                  LDX loc_1908         ;
2854: f0 16                     BEQ loc_286c         ;
2856: b1 09     loc_2856        LDA (dat_0009_L),Y   ;
2858: 18                        CLC                  ;
2859: 6d 01 19                  ADC dat_1901_L       ;
285c: 8d 01 19                  STA dat_1901_L       ;
285f: 90 03                     BCC loc_2864         ;
2861: ee 02 19                  INC dat_1902_H       ;
2864: c8        loc_2864        INY                  ;
2865: d0 ef                     BNE loc_2856         ;
2867: e6 0a                     INC dat_0009_H       ;
2869: ca                        DEX                  ;
286a: d0 ea                     BNE loc_2856         ;
286c: ae 07 19  loc_286c        LDX dat_1907         ;
286f: f0 14                     BEQ loc_2885         ;
2871: b1 09     loc_2871        LDA (dat_0009_L),Y   ;
2873: 18                        CLC                  ;
2874: 6d 01 19                  ADC dat_1901_L       ;
2877: 8d 01 19                  STA dat_1901_L       ;
287a: 90 03                     BCC loc_287f         ;
287c: ee 02 19                  INC dat_1902_H       ;
287f: c8        loc_287f        INY                  ;
2880: cc 07 19                  CPY dat_1907         ;
2883: 90 ec                     BCC loc_2871         ;
2885: ad 01 19  loc_2885        LDA dat_1901_L       ;
2888: cd 84 01                  CMP dat_0184_L       ;
288b: d0 0a                     BNE loc_2897         ;
288d: ad 02 19                  LDA dat_1902_H       ;
2890: cd 85 01                  CMP dat_0185_H       ;
2893: d0 02                     BNE loc_2897         ;
2895: 18                        CLC                  ;
2896: 60                        RTS                  ; Return to caller
2897: a9 00     loc_2897        LDA #$00             ;
2899: 8d 5b 02                  STA LINBUF+20        ;
289c: ce 64 02                  DEC LINBUF+29        ;
289f: 38                        SEC                  ;
28a0: 60                        RTS                  ; Return to caller

28a1: a9 00     sub_28a1        LDA #$00             ;
28a3: 85 08                     STA dat_0007_H       ;
28a5: ad 09 19                  LDA dat_1909         ;
28a8: a2 02                     LDX #$02             ;
28aa: 0a        loc_28aa        ASL                  ;
28ab: 26 08                     ROL dat_0007_H       ;
28ad: ca                        DEX                  ;
28ae: d0 fa                     BNE loc_28aa         ;
28b0: 69 80                     ADC #$80             ;
28b2: 85 07                     STA dat_0007_L       ;
28b4: a5 08                     LDA dat_0007_H       ;
28b6: 69 02                     ADC #$02             ;
28b8: 85 08                     STA dat_0007_H       ;
28ba: a0 03                     LDY #$03             ;
28bc: b1 07     loc_28bc        LDA (dat_0007_L),Y   ;
28be: 99 05 19                  STA loc_1905,Y       ;
28c1: 88                        DEY                  ;
28c2: 10 f8                     BPL loc_28bc         ;
28c4: 48                        PHA                  ; Save value of A to restore later
28c5: 29 fc                     AND #$fc             ;
28c7: 8d 5c 02                  STA LINBUF+21        ;
28ca: 68                        PLA                  ; Restore previous value of A
28cb: 29 03                     AND #$03             ;
28cd: 8d 04 19                  STA loc_1904         ;
28d0: ad 06 19                  LDA loc_1906         ;
28d3: 8d 03 19                  STA loc_1903         ;
28d6: 60                        RTS                  ; Return to caller

28d7: ad 05 19  sub_28d7        LDA loc_1905         ;
28da: a2 01                     LDX #$01             ;
28dc: 4a                        LSR                  ;
28dd: 4a                        LSR                  ;
28de: 4a                        LSR                  ;
28df: 90 01                     BCC loc_28e2         ;
28e1: e8                        INX                  ;
28e2: 29 03     loc_28e2        AND #$03             ;
28e4: 18                        CLC                  ;
28e5: 69 01                     ADC #$01             ;
28e7: 8d 11 19                  STA loc_1911         ;
28ea: 8e 10 19                  STX loc_1910         ;
28ed: a9 9f                     LDA #$9f             ; Set the ???
28ef: 85 16                     STA addr_0016_L      ;     address
28f1: a9 29                     LDA #$29             ;     to
28f3: 85 17                     STA addr_0016_H      ;     $299f []
28f5: 20 88 1c                  JSR sub_1c88         ;
28f8: ad 0e 19                  LDA dat_190e         ;
28fb: f0 0b                     BEQ loc_2908         ;
28fd: a9 07                     LDA #$07             ; Set the ???
28ff: 85 16                     STA addr_0016_L      ;     address
2901: a9 2a                     LDA #$2a             ;     to
2903: 85 17                     STA addr_0016_H      ;     $2a07 []
2905: 20 88 1c                  JSR sub_1c88         ;
2908: 20 2f 26  loc_2908        JSR sub_262f         ;
290b: 30 19                     BMI loc_2926         ;
290d: 20 43 26                  JSR sub_2643         ;
2910: c9 10                     CMP #$10             ;
2912: f0 12                     BEQ loc_2926         ;
2914: c9 20                     CMP #$20             ;
2916: f0 0e                     BEQ loc_2926         ;
2918: c9 1b                     CMP #$1b             ;
291a: d0 ec                     BNE loc_2908         ;
291c: ad 0e 19                  LDA dat_190e         ;
291f: f0 e7                     BEQ loc_2908         ;
2921: 20 2b 29                  JSR sub_292b         ;
2924: 38                        SEC                  ;
2925: 60                        RTS                  ;
2926: 20 2b 29  loc_2926        JSR sub_292b         ;
2929: 18                        CLC                  ;
292a: 60                        RTS                  ; Return to caller

292b: a9 07     sub_292b        LDA #$07             ; Set the ???
292d: 85 16                     STA addr_0016_L      ;     address
292f: a9 20                     LDA #$20             ;     to
2931: 85 17                     STA addr_0016_H      ;     $2007 [dat_2007]
2933: 20 88 1c                  JSR sub_1c88         ;
2936: 60                        RTS                  ; Return to caller

2937: ad 0b 19  sub_2937        LDA dat_190b_L       ;
293a: 85 09                     STA dat_0009_L       ;
293c: ad 0c 19                  LDA dat_190c_H       ;
293f: 85 0a                     STA dat_0009_H       ;
2941: ad 03 19                  LDA loc_1903         ;
2944: 8d 32 02                  STA SSKCTL           ;
2947: ad 04 19                  LDA loc_1904         ;
294a: 8d 33 02                  STA $0233            ;
294d: ad 07 19                  LDA dat_1907         ;
2950: 85 0b                     STA dat_0009_H+1     ;
2952: ad 08 19                  LDA loc_1908         ;
2955: 85 0c                     STA DOSINI           ;
2957: 20 79 29                  JSR sub_2979         ;
295a: 30 1a                     BMI loc_2976         ;
295c: a2 0f                     LDX #$0f             ;
295e: bd 00 01  loc_295e        LDA dat_0100,X       ;
2961: 9d 80 01                  STA dat_0180,X       ;
2964: ca                        DEX                  ;
2965: 10 f7                     BPL loc_295e         ;
2967: a2 03                     LDX #$03             ;
2969: bd 05 19  loc_2969        LDA loc_1905,X       ;
296c: dd 80 01                  CMP dat_0180,X       ;
296f: d0 05                     BNE loc_2976         ;
2971: ca                        DEX                  ;
2972: 10 f5                     BPL loc_2969         ;
2974: e8                        INX                  ;
2975: 60                        RTS                  ; Return to caller
2976: a9 ff     loc_2976        LDA #$ff             ;
2978: 60                        RTS                  ; Return to caller

2979: 2c 58 02  sub_2979        BIT LINBUF+17        ;
297c: 50 08                     BVC loc_2986         ;
297e: 2c 5a 02                  BIT LINBUF+19        ;
2981: 10 03                     BPL loc_2986         ;
2983: 4c f4 f9                  JMP $f9f4            ;
2986: a9 02     loc_2986        LDA #$02             ;
2988: 85 06                     STA TRAMSZ           ;
298a: 20 8e 24  loc_298a        JSR sub_248e         ;
298d: 10 06                     BPL loc_2995         ;
298f: c6 06                     DEC TRAMSZ           ;
2991: d0 f7                     BNE loc_298a         ;
2993: f0 08                     BEQ loc_299d         ;
2995: ee 32 02  loc_2995        INC SSKCTL           ;
2998: d0 03                     BNE loc_299d         ;
299a: ee 33 02                  INC $0233            ;
299d: 98        loc_299d        TYA                  ;
299e: 60                        RTS                  ; Return to caller

299f: a8                        TAY               ; .
29a0: a6 00                     LDX LINZBS        ; ..
29a2: 01 a5                     ORA ($a5,X)       ; ..
29a4: 50 6c                     BVC loc_2a12      ; Pl
29a6: 65 61                     ADC NEWCOL        ; ea
29a8: 73                        .BYTE $73         ; s
29a9: 65 20                     ADC dat_0020      ; e
29ab: 69 6e                     ADC #$6e          ; in
29ad: 73                        .BYTE $73         ; s
29ae: 65 72                     ADC COLAC         ; er
29b0: 74                        .BYTE $74         ; t
29b1: 20 54 68                  JSR $6854         ;  Th
29b4: 65 20                     ADC dat_0020      ; e
29b6: 44                        .BYTE $44         ; D
29b7: 75 6e                     ADC BITMSK,X      ; un
29b9: 67                        .BYTE $67         ; g
29ba: 65 6f                     ADC SHFAMT        ; eo
29bc: 6e 20 44                  ROR loc_4420      ; n D
29bf: 69 73                     ADC #$73          ; is
29c1: 6b                        .BYTE $6b         ; k
29c2: 20 b2 11                  JSR $11b2         ;  ..
29c5: 19 01 0d                  ORA $0d01,Y       ; ...
29c8: 0d a5 53                  ORA loc_53a5      ; ..S
29cb: 69 64                     ADC #$64          ; id
29cd: 65 20                     ADC dat_0020      ; e
29cf: b2                        .BYTE $b2         ; .
29d0: 10 19                     BPL loc_29eb      ; ..
29d2: 01 20                     ORA (dat_0020,X)  ; .
29d4: 69 6e                     ADC #$6e          ; in
29d6: 74 6f                     .BYTE $74,$6f     ; to
29d8: 20 61 6e                  JSR $6e61         ;  an
29db: 79 20 64                  ADC $6420,Y       ; y d
29de: 72                        .BYTE $72         ; r
29df: 69 76                     ADC #$76          ; iv
29e1: 65 2e                     ADC ICAX5Z        ; e.
29e3: 0d a6 00                  ORA $a6           ; ...
29e6: 05 a5                     ORA $a5           ; ..
29e8: 50 72                     BVC loc_2a5c      ; Pr
29ea: 65 73                     ADC COLAC+1       ; es
29ec: 73                        .BYTE $73         ; s
29ed: 20 a1 53                  JSR loc_53a1      ;  .S
29f0: 50 41                     BVC loc_2a33      ; PA
29f2: 43                        .BYTE $43         ; C
29f3: 45 20                     EOR dat_0020      ; E
29f5: 42                        .BYTE $42         ; B
29f6: 41 52                     EOR (LMARGN,X)    ; AR
29f8: a0 20                     LDY #$20          ; .
29fa: 74 6f                     .BYTE $74,$6f     ; to
29fc: 20 63 6f                  JSR $6f63         ;  co
29ff: 6e 74 69                  ROR $6974         ; nti
2a02: 6e 75 65                  ROR $6575         ; nue
2a05: 0d ff a6                  ORA $a6ff         ; ...
2a08: 00                        BRK               ; .
2a09: 07                        .BYTE $07         ; .
2a0a: a5 6f                     LDA SHFAMT        ; .o
2a0c: 72                        .BYTE $72         ; r
2a0d: 20 70 72                  JSR $7270         ;  pr
2a10: 65 73                     ADC COLAC+1       ; es
2a12: 73        loc_2a12        .BYTE $73         ; s
2a13: 20 a1 45                  JSR loc_45a1      ;  .E
2a16: 53 43                     .BYTE $53,$43     ; SC
2a18: a0 20                     LDY #$20          ; .
2a1a: 74 6f                     .BYTE $74,$6f     ; to
2a1c: 20 61 62                  JSR loc_6261      ;  ab
2a1f: 6f 72                     .BYTE $6f,$72     ; or
2a21: 74        loc_2a21        .BYTE $74         ; t
2a22: 0d ff 4c                  ORA loc_4cff      ; ..L
2a25: 6f                        .BYTE $6f         ; o
2a26: 61 64                     ADC (ADRESS,X)    ; ad
2a28: 69 6e                     ADC #$6e          ; in
2a2a: 67                        .BYTE $67         ; g
2a2b: 2e 2e 2e                  ROL loc_2e2e      ; ...
2a2e: 45 6e     loc_2a2e        EOR BITMSK        ; En
2a30: 63 6f                     .BYTE $63,$6f     ; co
2a32: 75 6e                     ADC BITMSK,X      ; un
2a34: 74                        .BYTE $74         ; t
2a35: 65 72                     ADC COLAC         ; er
2a37: 21 00                     AND (LINZBS,X)    ; !.
2a39: 01 ef                     ORA (ESIGN,X)     ; ..
2a3b: ff                        .BYTE $ff         ; .

2a3c: de b4 b9                  DEC $b9b4,X       ; ...
2a3f: f0 e0                     BEQ loc_2a21      ; ..
2a41: c9 28     sub_2a41        CMP #$28          ; .(
2a43: 90 02                     BCC loc_2a47      ; ..
2a45: a9 27                     LDA #$27          ; .'
2a47: 8d d4 18  loc_2a47        STA loc_18d4      ; ...
2a4a: a2 00                     LDX #$00          ; ..
2a4c: a9 5f     loc_2a4c        LDA #$5f          ; ._
2a4e: 20 2c 1c                  JSR sub_1c2c      ;  ,.
2a51: a9 08                     LDA #$08          ; ..
2a53: 20 2c 1c                  JSR sub_1c2c      ;  ,.
2a56: 20 43 26  loc_2a56        JSR sub_2643      ;  C&
2a59: 30 fb                     BMI loc_2a56      ; 0.
2a5b: c9 0d                     CMP #$0d          ; ..
2a5d: d0 0a                     BNE loc_2a69      ; ..
2a5f: 9d d5 18                  STA loc_18d5,X    ; ...
2a62: a9 20                     LDA #$20          ; .
2a64: 20 2c 1c                  JSR sub_1c2c      ;  ,.
2a67: 18                        CLC               ; .
2a68: 60                        RTS               ; `
2a69: c9 1b     loc_2a69        CMP #$1b          ; ..
2a6b: d0 07                     BNE loc_2a74      ; ..
2a6d: a9 20                     LDA #$20          ; .
2a6f: 20 2c 1c                  JSR sub_1c2c      ;  ,.
2a72: 38                        SEC               ; 8
2a73: 60                        RTS               ; `
2a74: c9 08     loc_2a74        CMP #$08          ; ..
2a76: d0 15                     BNE loc_2a8d      ; ..
2a78: e0 00                     CPX #$00          ; ..
2a7a: f0 da                     BEQ loc_2a56      ; ..
2a7c: a9 20                     LDA #$20          ; .
2a7e: 20 2c 1c                  JSR sub_1c2c      ;  ,.
2a81: a9 08                     LDA #$08          ; ..
2a83: 20 2c 1c                  JSR sub_1c2c      ;  ,.
2a86: 20 2c 1c                  JSR sub_1c2c      ;  ,.
2a89: ca                        DEX               ; .
2a8a: 4c 4c 2a                  JMP loc_2a4c      ; LL*
2a8d: c9 20     loc_2a8d        CMP #$20          ; .
2a8f: 90 c5                     BCC loc_2a56      ; ..
2a91: ec d4 18                  CPX loc_18d4      ; ...
2a94: b0 c0                     BCS loc_2a56      ; ..
2a96: 9d d5 18                  STA loc_18d5,X    ; ...
2a99: 20 2c 1c                  JSR sub_1c2c      ;  ,.
2a9c: e8                        INX               ; .
2a9d: 4c 4c 2a                  JMP loc_2a4c      ; LL*
2aa0: a9 00     loc_2aa0        LDA #$00          ; ..
2aa2: 85 02                     STA dat_0002      ; ..
2aa4: 85 03                     STA dat_0003      ; ..
2aa6: a9 05                     LDA #$05          ; ..
2aa8: 20 41 2a                  JSR sub_2a41      ;  A*
2aab: b0 54                     BCS loc_2b01      ; .T
2aad: e0 00                     CPX #$00          ; ..
2aaf: d0 03                     BNE loc_2ab4      ; ..
2ab1: 4c f8 2a                  JMP loc_2af8      ; L.*
2ab4: 20 0f 2b  loc_2ab4        JSR sub_2b0f      ;  .+
2ab7: f0 3f                     BEQ loc_2af8      ; .?
2ab9: ca                        DEX               ; .
2aba: bd d5 18  loc_2aba        LDA loc_18d5,X    ; ...
2abd: c9 30                     CMP #$30          ; .0
2abf: 90 41                     BCC loc_2b02      ; .A
2ac1: c9 3a                     CMP #$3a          ; .:
2ac3: b0 3d                     BCS loc_2b02      ; .=
2ac5: ca                        DEX               ; .
2ac6: 10 f2                     BPL loc_2aba      ; ..
2ac8: e8                        INX               ; .
2ac9: 86 06                     STX TRAMSZ        ; ..
2acb: a9 0a     loc_2acb        LDA #$0a          ; ..
2acd: 85 07                     STA dat_0007_L    ; ..
2acf: a9 00                     LDA #$00          ; ..
2ad1: 85 08                     STA dat_0007_H    ; ..
2ad3: 20 47 2b                  JSR sub_2b47      ;  G+
2ad6: a5 04                     LDA dat_0004      ; ..
2ad8: 05 05                     ORA dat_0005      ; ..
2ada: d0 2a                     BNE loc_2b06      ; .*
2adc: a6 06                     LDX TRAMSZ        ; ..
2ade: 18                        CLC               ; .
2adf: bd d5 18                  LDA loc_18d5,X    ; ...
2ae2: 29 0f                     AND #$0f          ; ).
2ae4: 65 02                     ADC dat_0002      ; e.
2ae6: 85 02                     STA dat_0002      ; ..
2ae8: a9 00                     LDA #$00          ; ..
2aea: 65 03                     ADC dat_0003      ; e.
2aec: 85 03                     STA dat_0003      ; ..
2aee: b0 16                     BCS loc_2b06      ; ..
2af0: e8                        INX               ; .
2af1: 86 06                     STX TRAMSZ        ; ..
2af3: ec 46 2b                  CPX loc_2b46      ; .F+
2af6: 90 d3                     BCC loc_2acb      ; ..
2af8: 18        loc_2af8        CLC               ; .
2af9: a5 02                     LDA dat_0002      ; ..
2afb: 05 03                     ORA dat_0003      ; ..
2afd: 10 02                     BPL loc_2b01      ; ..
2aff: a9 01                     LDA #$01          ; ..
2b01: 60        loc_2b01        RTS               ; `
2b02: 18        loc_2b02        CLC               ; .
2b03: a9 ff                     LDA #$ff          ; ..
2b05: 60                        RTS               ; `
2b06: a9 ff     loc_2b06        LDA #$ff          ; ..
2b08: 85 02                     STA dat_0002      ; ..
2b0a: 85 03                     STA dat_0003      ; ..
2b0c: d0 ea                     BNE loc_2af8      ; ..
2b0e: 60                        RTS               ; `
2b0f: 8e 46 2b  sub_2b0f        STX loc_2b46      ; .F+
2b12: ca                        DEX               ; .
2b13: bd d5 18  loc_2b13        LDA loc_18d5,X    ; ...
2b16: c9 20                     CMP #$20          ; .
2b18: d0 03                     BNE loc_2b1d      ; ..
2b1a: ca                        DEX               ; .
2b1b: 10 f6                     BPL loc_2b13      ; ..
2b1d: e8        loc_2b1d        INX               ; .
2b1e: 8e 46 2b                  STX loc_2b46      ; .F+
2b21: a2 00                     LDX #$00          ; ..
2b23: bd d5 18  loc_2b23        LDA loc_18d5,X    ; ...
2b26: c9 20                     CMP #$20          ; .
2b28: d0 06                     BNE loc_2b30      ; ..
2b2a: e8                        INX               ; .
2b2b: ec 46 2b                  CPX loc_2b46      ; .F+
2b2e: 90 f3                     BCC loc_2b23      ; ..
2b30: a0 00     loc_2b30        LDY #$00          ; ..
2b32: bd d5 18  loc_2b32        LDA loc_18d5,X    ; ...
2b35: 99 d5 18                  STA loc_18d5,Y    ; ...
2b38: c8                        INY               ; .
2b39: e8                        INX               ; .
2b3a: ec 46 2b                  CPX loc_2b46      ; .F+
2b3d: 90 f3                     BCC loc_2b32      ; ..
2b3f: 8c 46 2b                  STY loc_2b46      ; .F+
2b42: ae 46 2b                  LDX loc_2b46      ; .F+
2b45: 60                        RTS               ; `
2b46: 00        loc_2b46        BRK               ; .
2b47: a9 00     sub_2b47        LDA #$00          ; ..
2b49: 85 04                     STA dat_0004      ; ..
2b4b: 85 05                     STA dat_0005      ; ..
2b4d: a2 11                     LDX #$11          ; ..
2b4f: 18                        CLC               ; .
2b50: 66 05     loc_2b50        ROR dat_0005      ; f.
2b52: 66 04                     ROR dat_0004      ; f.
2b54: 66 03                     ROR dat_0003      ; f.
2b56: 66 02                     ROR dat_0002      ; f.
2b58: 90 0d                     BCC loc_2b67      ; ..
2b5a: 18                        CLC               ; .
2b5b: a5 07                     LDA dat_0007_L    ; ..
2b5d: 65 04                     ADC dat_0004      ; e.
2b5f: 85 04                     STA dat_0004      ; ..
2b61: a5 08                     LDA dat_0007_H    ; ..
2b63: 65 05                     ADC dat_0005      ; e.
2b65: 85 05                     STA dat_0005      ; ..
2b67: ca        loc_2b67        DEX               ; .
2b68: d0 e6                     BNE loc_2b50      ; ..
2b6a: 60                        RTS               ;

2b6b: 48        loc_2b6b        PHA               ; Preserve current value of A
2b6c: 8a                        TXA               ; Preserve current
2b6d: 48                        PHA               ;     value of X
2b6e: 98                        TYA               ; Preserve current
2b6f: 48                        PHA               ;     value of Y
2b70: ba                        TSX               ;
2b71: fe 03 01                  INC $0103,X       ;
2b74: d0 06                     BNE loc_2b7c      ;
2b76: ad 0a d2                  LDA RANDOM        ;
2b79: 4c 92 2b                  JMP loc_2b92      ;
2b7c: bd 03 01  loc_2b7c        LDA $0103,X       ;
2b7f: a0 07                     LDY #$07          ;
2b81: 0a        loc_2b81        ASL               ;
2b82: b0 03                     BCS loc_2b87      ;
2b84: 88                        DEY               ;
2b85: 10 fa                     BPL loc_2b81      ;
2b87: ad 0a d2  loc_2b87        LDA RANDOM        ;
2b8a: 39 9d 2b                  AND loc_2b9d,Y    ;
2b8d: dd 03 01                  CMP $0103,X       ;
2b90: b0 f5                     BCS loc_2b87      ;
2b92: 9d 03 01  loc_2b92        STA $0103,X       ;
2b95: 68                        PLA               ; Restore previous
2b96: a8                        TAY               ;     value of Y
2b97: 68                        PLA               ; Restore previous
2b98: aa                        TAX               ;     value of X
2b99: 68                        PLA               ; Restore previous
2b9a: 09 00                     ORA #$00          ;     value of A    TODO: Why the OR?
2b9c: 60                        RTS               ; Return to caller

2b9d: 01 03     loc_2b9d        ORA (dat_0003,X)  ; ..
2b9f: 07 0f 1f 3f 7f ff         .BYTE $07,$0f,$1f,$3f,$7f,$ff  ; ...?.

2ba5: c9 61     sub_2ba5        CMP #$61             ;
2ba7: 90 06                     BCC loc_2baf         ;
2ba9: c9 7b                     CMP #$7b             ;
2bab: b0 02                     BCS loc_2baf         ;
2bad: e9 1f                     SBC #$1f             ;
2baf: 60        loc_2baf        RTS                  ; Return to caller

2bb0: c6 32     sub_2bb0        DEC dat_0032_L       ;
2bb2: a2 1e                     LDX #$1e             ;
2bb4: 20 66 2c  loc_2bb4        JSR WAIT_FOR_VBLK_B  ;
2bb7: ca                        DEX                  ;
2bb8: d0 fa                     BNE loc_2bb4         ;
2bba: 20 43 26                  JSR sub_2643         ;
2bbd: a9 d0                     LDA #$d0             ; Set
2bbf: 85 16                     STA addr_0016_L      ;    ???
2bc1: a9 2b                     LDA #$2b             ;    address
2bc3: 85 17                     STA addr_0016_H      ;    to $2bd0 []
2bc5: 20 88 1c                  JSR sub_1c88         ;
2bc8: 20 43 26  loc_2bc8        JSR sub_2643         ;
2bcb: 30 fb                     BMI loc_2bc8         ;
2bcd: e6 32                     INC dat_0032_L       ;
2bcf: 60                        RTS                  ; Return to caller

2bd0: a6 00                     LDX LINZBS        ; ..
2bd2: 07                        .BYTE $07         ; .
2bd3: a9 a5                     LDA #$a5          ; ..
2bd5: 3c 3c 3c                  .BYTE $3c,$3c,$3c  ; <<<
2bd8: 20 a1 50                  JSR loc_50a1      ;  .P
2bdb: 72                        .BYTE $72         ; r
2bdc: 65 73                     ADC COLAC+1       ; es
2bde: 73                        .BYTE $73         ; s
2bdf: 20 61 6e                  JSR $6e61         ;  an
2be2: 79 20 6b                  ADC $6b20,Y       ; y k
2be5: 65 79                     ADC ROWINC        ; ey
2be7: 20 74 6f                  JSR $6f74         ;  to
2bea: 20 63 6f                  JSR $6f63         ;  co
2bed: 6e 74 69                  ROR $6974         ; nti
2bf0: 6e 75 65                  ROR $6575         ; nue
2bf3: a0 20                     LDY #$20          ; .
2bf5: 3e 3e 3e                  ROL loc_3e3e,X    ; >>>
2bf8: 0d ff a9                  ORA $a9ff         ; ...
2bfb: 06 8d                     ASL STARP+1       ; ..
2bfd: 64                        .BYTE $64         ; d

2bfe: 2c c6 32                  BIT loc_32c6         ;
2c01: c6 0f                     DEC APPMHI+1         ;
2c03: ce 37 19                  DEC loc_1937         ;
2c06: a9 01                     LDA #$01             ;
2c08: 8d 65 2c                  STA cnt_2c65         ;
2c0b: 20 43 26                  JSR sub_2643         ;
2c0e: a9 06     loc_2c0e        LDA #$06             ; Set
2c10: 8d 63 2c                  STA cnt_2c63         ;    $2c63 [cnt_2c63] = 0
2c13: a2 0a     loc_2c13        LDX #$0a             ; Wait
2c15: 20 66 2c  loc_2c15        JSR WAIT_FOR_VBLK_B  ;     for 10 vertical
2c18: ca                        DEX                  ;     blank periods
2c19: d0 fa                     BNE loc_2c15         ;     to pass
2c1b: ad 65 2c                  LDA cnt_2c65         ;
2c1e: 30 06                     BMI loc_2c26         ;
2c20: ce 65 2c                  DEC cnt_2c65         ;
2c23: 4c 0e 2c                  JMP loc_2c0e         ;
2c26: ad 77 19  loc_2c26        LDA cont_addr_1977_L ;
2c29: 8d 99 2c                  STA tmp_2c99_L       ;
2c2c: ad 78 19                  LDA UNK_MEMREF_HI_1978 ;
2c2f: 8d 9a 2c                  STA tmp_2c99_H       ;
2c32: a9 3f                     LDA #$3f             ; Set return
2c34: 8d 77 19                  STA cont_addr_1977_L ;     address
2c37: a9 2c                     LDA #$2c             ;     to $2c3f [cont_2c3f]
2c39: 8d 78 19                  STA UNK_MEMREF_HI_1978 ;
2c3c: 4c f3 2f                  JMP loc_2ff3         ;
2c3f: ad 99 2c  cont_2c3f       LDA tmp_2c99_L       ;
2c42: 8d 77 19                  STA cont_addr_1977_L ;
2c45: ad 9a 2c                  LDA tmp_2c99_H       ;
2c48: 8d 78 19                  STA UNK_MEMREF_HI_1978 ;
2c4b: a5 31                     LDA CHKSUM           ;
2c4d: c9 20                     CMP #$20             ;
2c4f: f0 0a                     BEQ loc_2c5b         ;
2c51: ce 63 2c                  DEC cnt_2c63         ;
2c54: d0 bd                     BNE loc_2c13         ;
2c56: ce 64 2c                  DEC exe_cnt_2c64     ; If # of executions of this section of code is
2c59: d0 b3                     BNE loc_2c0e         ;    not evenly divisible by 256, jump to $2c0e [loc_2c0e]
                                                     ; Otherwise,
2c5b: e6 32     loc_2c5b        INC dat_0032_L       ;    - add 1 to $0032 [dat_0032_L]
2c5d: e6 0f                     INC APPMHI+1         ;    - add 1 to $000f [dat_000f]
2c5f: ee 37 19                  INC loc_1937         ;    - add 1 to $1937 [dat_1937]
2c62: 60                        RTS                  ; Return to caller

2c63: 00        cnt_2c63        .BYTE $00            ; Loop counter (6 iterations : counts from 6 down to 0)
2c64: 00        exe_cnt_2c64    .BYTE $00            ; Counts # of times a section of code is executed
                                                     ;     Used to execute different code when exe_cnt_2c64 % 256 = 0
2c65: 00        cnt_2c65        .BYTE $00            ; Loop counter (2 iterations : counts from 1 down to -1)

2c66: ad 52 02  WAIT_FOR_VBLK_B  LDA VBLK_COUNTER    ; Continually read
2c69: cd 52 02  loc_2c69        CMP VBLK_COUNTER     ;     the vblank counter
2c6c: f0 fb                     BEQ loc_2c69         ;     until it updates
2c6e: 60                        RTS                  ; Return to caller

2c6f: ad 77 19  loc_2c6f        LDA cont_addr_1977_L ; Preserve the current
2c72: 8d 99 2c                  STA tmp_2c99_L       ;     value of cont_addr_1977_L
2c75: ad 78 19                  LDA UNK_MEMREF_HI_1978 ; Preserve the current
2c78: 8d 9a 2c                  STA tmp_2c99_H       ;     value of UNK_MEMREF_HI_1978
2c7b: a9 88                     LDA #$88             ; Set return
2c7d: 8d 77 19                  STA cont_addr_1977_L ;     address
2c80: a9 2c                     LDA #$2c             ;     to
2c82: 8d 78 19                  STA UNK_MEMREF_HI_1978 ;     $2c88 [cont_2c88]
2c85: 4c f3 2f                  JMP loc_2ff3         ;
2c88: ad 99 2c  cont_2c88       LDA tmp_2c99_L       ; Restore the previous
2c8b: 8d 77 19                  STA cont_addr_1977_L ;     value of cont_addr_1977_L
2c8e: ad 9a 2c                  LDA tmp_2c99_H       ; Restore the previous
2c91: 8d 78 19                  STA UNK_MEMREF_HI_1978 ;     value of UNK_MEMREF_HI_1978
2c94: a5 31                     LDA CHKSUM           ;
2c96: 30 d7                     BMI loc_2c6f         ;
2c98: 60                        RTS                  ; Return to caller

2c99: ff        tmp_2c99_L      .BYTE $ff            ; Temp storage for preserving the value of cont_addr_1977_L
2c9a: ff        tmp_2c99_H      .BYTE $ff            ; Temp storage for preserving the value of UNK_MEMREF_HI_1978

2c9b: 86 0e     loc_2c9b        STX APPMHI           ;
2c9d: 84 0d                     STY DOSINI+1         ;
2c9f: 0a                        ASL                  ;
2ca0: a8                        TAY                  ;
2ca1: b1 0d                     LDA (DOSINI+1),Y     ;
2ca3: 85 16                     STA addr_0016_L      ;
2ca5: c8                        INY                  ;
2ca6: b1 0d                     LDA (DOSINI+1),Y     ;
2ca8: 85 17                     STA addr_0016_H      ;
2caa: 60                        RTS                  ; Return to caller

2cab: 00                        BRK               ; .
2cac: 60                        RTS               ; `

2cad: c6 32     sub_2cad        DEC dat_0032_L    ;
2caf: a9 00                     LDA #$00          ;
2cb1: 8d 0e 19                  STA dat_190e      ;
2cb4: 20 fb 2c  loc_2cb4        JSR sub_2cfb      ;
2cb7: 90 06                     BCC loc_2cbf      ;
2cb9: 20 d7 28                  JSR sub_28d7      ;
2cbc: 4c b4 2c                  JMP loc_2cb4      ;
2cbf: e6 32     loc_2cbf        INC dat_0032_L    ;
2cc1: 60                        RTS               ; Return to caller

2cc2: c6 32     sub_2cc2        DEC dat_0032_L    ;
2cc4: ad 09 19                  LDA dat_1909      ;
2cc7: a2 03                     LDX #$03          ;
2cc9: dd f7 2c  loc_2cc9        CMP dat_2cf7,X    ;
2ccc: f0 05                     BEQ loc_2cd3      ;
2cce: ca                        DEX               ;
2ccf: 10 f8                     BPL loc_2cc9      ;
2cd1: 30 05                     BMI loc_2cd8      ;
2cd3: a9 00     loc_2cd3        LDA #$00          ;
2cd5: 8d 0e 19                  STA dat_190e      ;
2cd8: 20 fb 2c  loc_2cd8        JSR sub_2cfb      ;
2cdb: 90 17                     BCC loc_2cf4      ;
2cdd: 20 d7 28                  JSR sub_28d7      ;
2ce0: 90 f6                     BCC loc_2cd8      ;
2ce2: a2 04                     LDX #$04          ;
2ce4: bd 18 63  loc_2ce4        LDA $6318,X       ;
2ce7: 9d 13 63                  STA CHR_LOC_X,X   ;
2cea: ca                        DEX               ;
2ceb: 10 f7                     BPL loc_2ce4      ;
2ced: ad 1f 63                  LDA CHR_UNK_BYTE_631F ;
2cf0: 8d 1e 63                  STA CHR_UNK_BYTE_631E ;
2cf3: 38                        SEC               ;
2cf4: e6 32     loc_2cf4        INC dat_0032_L    ;
2cf6: 60                        RTS               ; Return to caller

2cf7: 10 11 12 3f  dat_2cf7     .BYTE $10,$11,$12,$3f ;

2cfb: ad 09 19  sub_2cfb        LDA dat_1909         ;
2cfe: 48                        PHA                  ;
2cff: a2 1f     loc_2cff        LDX #$1f             ;
2d01: a9 00                     LDA #$00             ;
2d03: 9d 7c 19  loc_2d03        STA loc_197c,X       ;
2d06: ca                        DEX                  ;
2d07: 10 fa                     BPL loc_2d03         ;
2d09: a2 09                     LDX #$09             ;
2d0b: ac 09 19                  LDY dat_1909         ;
2d0e: bd 2e 2a  loc_2d0e        LDA loc_2a2e,X       ;
2d11: c0 11                     CPY #$11             ;
2d13: f0 03                     BEQ loc_2d18         ;
2d15: bd 24 2a                  LDA loc_2a24,X       ;
2d18: 9d 87 19  loc_2d18        STA loc_1987,X       ;
2d1b: ca                        DEX                  ;
2d1c: 10 f0                     BPL loc_2d0e         ;
2d1e: a9 00                     LDA #$00             ;
2d20: 8d 64 02                  STA LINBUF+29        ;
2d23: 8d 59 02                  STA LINBUF+18        ;
2d26: 8d 5a 02                  STA LINBUF+19        ;
2d29: 8d 5b 02                  STA LINBUF+20        ;
2d2c: 2c 58 02                  BIT LINBUF+17        ;
2d2f: 10 0f                     BPL loc_2d40         ;
2d31: ad 09 19                  LDA dat_1909         ;
2d34: c9 0e                     CMP #$0e             ;
2d36: b0 08                     BCS loc_2d40         ;
2d38: ce 59 02                  DEC LINBUF+18        ;
2d3b: 20 53 f9                  JSR $f953            ;
2d3e: 90 22                     BCC loc_2d62         ;
2d40: ad 09 19  loc_2d40        LDA dat_1909         ;
2d43: a2 2a                     LDX #$2a             ;
2d45: a0 38                     LDY #$38             ;
2d47: 20 e3 2d                  JSR sub_2de3         ;
2d4a: 6e 5a 02                  ROR LINBUF+19        ;
2d4d: 20 5b 27                  JSR sub_275b         ;
2d50: b0 0a                     BCS loc_2d5c         ;
2d52: 2c 59 02                  BIT LINBUF+18        ;
2d55: 10 0b                     BPL loc_2d62         ;
2d57: 20 00 f9                  JSR $f900            ;
2d5a: 90 06                     BCC loc_2d62         ;
2d5c: 2c 3d 02  loc_2d5c        BIT CAUX2            ;
2d5f: 10 06                     BPL loc_2d67         ;
2d61: 38        loc_2d61        SEC                  ;
2d62: 68        loc_2d62        PLA                  ;
2d63: 8d 09 19                  STA dat_1909         ;
2d66: 60                        RTS                  ;
2d67: ad 09 19  loc_2d67        LDA dat_1909         ;
2d6a: a2 05                     LDX #$05             ;
2d6c: 2c 58 02                  BIT LINBUF+17        ;
2d6f: 50 01                     BVC loc_2d72         ;
2d71: ca                        DEX                  ;
2d72: dd 85 2d  loc_2d72        CMP loc_2d85,X       ;
2d75: f0 05                     BEQ loc_2d7c         ;
2d77: ca                        DEX                  ;
2d78: 10 f8                     BPL loc_2d72         ;
2d7a: 30 e5                     BMI loc_2d61         ;
2d7c: bd 8a 2d  loc_2d7c        LDA loc_2d8a,X       ;
2d7f: 8d 09 19                  STA dat_1909         ;
2d82: 4c ff 2c                  JMP loc_2cff         ;

2d85: 35 0f     loc_2d85        AND APPMHI+1,X    ; 5.
2d87: 44 43                     .BYTE $44,$43     ; DC
2d89: 10 2f                     BPL bad_2dba      ; ./
2d8b: 44 43 42 3f               .BYTE $44,$43,$42,$3f  ; DCB?

2d8f: a0 00     loc_2d8f        LDY #$00             ;
2d91: a6 0c                     LDX DOSINI           ;
2d93: f0 0a                     BEQ loc_2d9f         ;
2d95: 91 09     loc_2d95        STA (dat_0009_L),Y   ;
2d97: c8                        INY                  ;
2d98: d0 fb                     BNE loc_2d95         ;
2d9a: e6 0a                     INC dat_0009_H       ;
2d9c: ca                        DEX                  ;
2d9d: d0 f6                     BNE loc_2d95         ;
2d9f: a6 0b     loc_2d9f        LDX dat_0009_H+1     ;
2da1: f0 07                     BEQ loc_2daa         ;
2da3: 91 09     loc_2da3        STA (dat_0009_L),Y   ;
2da5: c8                        INY                  ;
2da6: c4 0b                     CPY dat_0009_H+1     ;
2da8: d0 f9                     BNE loc_2da3         ;
2daa: 60        loc_2daa        RTS                  ; Return to caller

; Parameters
;   C = Type of comparison and source address to apply @ $2ddc [smc_2ddc]
;         0 = AND $2dfd,X [tbl_2dfd]
;         1 = ORA $2e05,X [tbl_2e05]
;   A = Contains two indices
;         - Bits 0-2   - Offset for AND $2dfd,X (C=0) / ORA $2e05,X (C=1)
;         - Bits 3-7?  - Offset from X * 256 + Y of byte to read & update
;   X = MSB of base address to read & update
;   Y = LSB of base address to read & update
2dab: 8e db 2d  sub_2dab        STX smc_2dd9+2       ; Self-modifying code:
2dae: 8e e1 2d                  STX smc_2ddf+2       ;     Set MSB of base address to read & update
2db1: 8c da 2d                  STY smc_2dd9+1       ; Self-modifying code:
2db4: 8c e0 2d                  STY smc_2ddf+1       ;     Set LSB of base address to read & update
2db7: 48                        PHA                  ; Preserve current value of A
2db8: a9 1d                     LDA #$1d             ; $1d = ORA abs,X
2dba: a2 2e                     LDX #$2e             ; Set the source address
2dbc: a0 05                     LDY #$05             ;     operand for the ORA
2dbe: b0 06                     BCS loc_2dc6         ; If C=1, skip next 3 instructions and apply ORA $2e05,X
                                                     ; Otherwise, apply AND $2dfd,X
2dc0: a9 3d                     LDA #$3d             ; $3d = AND abs,X
2dc2: a2 2d                     LDX #$2d             ; Set the source address
2dc4: a0 fd                     LDY #$fd             ;     operand for the AND
2dc6: 8d dc 2d  loc_2dc6        STA smc_2ddc         ; Self-modifying code: Applies ORA if carry set above, otherwise AND
2dc9: 8c dd 2d                  STY smc_2ddc+1       ; Set LSB of base address to read from (C=0 -> $2dfd [tbl_2dfd])
2dcc: 8e de 2d                  STX smc_2ddc+2       ; Set MSB of base address to read from (C=1 -> $2e05 [tbl_2e05])
2dcf: 68                        PLA                  ; Restore previous value of A
2dd0: 48                        PHA                  ; Preserve current value of A
2dd1: 29 07                     AND #$07             ;
2dd3: aa                        TAX                  ; Set X = A & 7
2dd4: 68                        PLA                  ; Restore previous value of A
2dd5: 4a                        LSR                  ; Divide
2dd6: 4a                        LSR                  ;     A
2dd7: 4a                        LSR                  ;     by 8
2dd8: a8                        TAY                  ; Set Y = A
2dd9: b9 ff ff  smc_2dd9        LDA $ffff,Y          ;
2ddc: 1d 05 2e  smc_2ddc        ORA tbl_2e05,X       ;
2ddf: 99 ff ff  smc_2ddf        STA $ffff,Y          ;
2de2: 60                        RTS                  ; Return to caller

; Performs the following:
;   1. Let mask = value @ ($2e05 + (A & 7))
;   2. Let result = value @ (X * 256 + Y + A/8) AND mask
;   3. If result == 0
;        then Set C = 0
;        else Set C = 1
; Parameters:
;   A = Contains two indices
;         - Bits 0-2   - Offset for AND $2e05,X
;         - Bits 3-7?  - Offset from X * 256 + Y of byte to test
;   X = MSB of base address to read
;   Y = LSB of base address to read
; Return:
;   Carry flag is updated on return
;      0 if
;      1 if
2de3: 8e f5 2d  sub_2de3        STX smc_2df3+2    ; Self-modifying code: Set MSB of base address to read from
2de6: 8c f4 2d                  STY smc_2df3+1    ; Self-modifying code: Set LSB of base address to read from
2de9: 48                        PHA               ; Preserve current value of A
2dea: 29 07                     AND #$07          ; Set
2dec: aa                        TAX               ;     X = A & 7
2ded: 68                        PLA               ; Restore previous value of A
2dee: 4a                        LSR               ; Divide
2def: 4a                        LSR               ;     A
2df0: 4a                        LSR               ;     by 8
2df1: a8                        TAY               ; Set Y = A
2df2: 18                        CLC               ; Clear the carry flag (Set C = 0)
2df3: b9 ff ff  smc_2df3        LDA $ffff,Y       ; Read the source byte (address dynamically updated above)
2df6: 3d 05 2e                  AND tbl_2e05,X    ;     and AND it with the mask value.
2df9: f0 01                     BEQ loc_2dfc      ; If the result is not zero,
2dfb: 38                        SEC               ;     then set the carry flag (Set C = 1)
2dfc: 60        loc_2dfc        RTS               ; Return to caller


2dfd: 7f bf df ef f7 fb fd fe  tbl_2dfd  .BYTE $7f,$bf,$df,$ef,$f7,$fb,$fd,$fe
2e05: 80 40 20 10 08 04 02 01  tbl_2e05  .BYTE $80,$40,$20,$10,$08,$04,$02,$01

2e0d: 84
2e0e: 0b                        .BYTE $0b         ;
2e0f: a0 00                     LDY #$00          ;
2e11: e0 00                     CPX #$00          ;
2e13: f0 0e                     BEQ loc_2e23      ;
2e15: b1 07     loc_2e15        LDA (dat_0007_L),Y;
2e17: 91 09                     STA (dat_0009_L),Y;
2e19: c8                        INY               ;
2e1a: d0 f9                     BNE loc_2e15      ;
2e1c: e6 0a                     INC dat_0009_H    ;
2e1e: e6 08     loc_2e1e        INC dat_0007_H    ;
2e20: ca                        DEX               ;
2e21: d0 f2                     BNE loc_2e15      ;
2e23: a5 0b     loc_2e23        LDA dat_0009_H+1  ;
2e25: f0 09                     BEQ loc_2e30      ;
2e27: b1 07     loc_2e27        LDA (dat_0007_L),Y;
2e29: 91 09                     STA (dat_0009_L),Y;
2e2b: c8                        INY               ;
2e2c: c4 0b                     CPY dat_0009_H+1  ;
2e2e: d0 f7     loc_2e2e        BNE loc_2e27      ;
2e30: 60        loc_2e30        RTS               ;
2e31: c6 32     loc_2e31        DEC dat_0032_L    ;
2e33: a2 07                     LDX #$07          ;
2e35: b5 35     loc_2e35        LDA BFENHI,X      ;
2e37: 9d 09 63                  STA TME_MINUTES,X ;
2e3a: ca                        DEX               ;
2e3b: 10 f8                     BPL loc_2e35      ;
2e3d: e6 32                     INC dat_0032_L    ;
2e3f: 60                        RTS               ; Return to caller

2e40: a0 01     loc_2e40        LDY #$01          ;
2e42: 2c a0 00                  BIT $a0           ;
2e45: 20 8d 2e  loc_2e45        JSR sub_2e8d      ;
2e48: 18        loc_2e48        CLC               ;
2e49: b1 45                     LDA (ZDRVA),Y     ;
2e4b: 65 51                     ADC HOLD1         ;
2e4d: 91 45                     STA (ZDRVA),Y     ;
2e4f: 88                        DEY               ;
2e50: 30 09                     BMI loc_2e5b      ;
2e52: b1 45     loc_2e52        LDA (ZDRVA),Y     ;
2e54: 69 00                     ADC #$00          ;
2e56: 91 45                     STA (ZDRVA),Y     ;
2e58: 88                        DEY               ;
2e59: 10 f7                     BPL loc_2e52      ;
2e5b: 90 08     loc_2e5b        BCC loc_2e65      ;
2e5d: 98                        TYA               ;
2e5e: a4 54                     LDY ROWCRS        ;
2e60: 91 45     loc_2e60        STA (ZDRVA),Y     ;
2e62: 88                        DEY               ;
2e63: 10 fb                     BPL loc_2e60      ;
2e65: 60        loc_2e65        RTS               ; Return to caller

2e66: a0 01     sub_2e66        LDY #$01          ; ..
2e68: 2c a0 00                  BIT $a0           ; ,..
2e6b: 20 8d 2e  loc_2e6b        JSR sub_2e8d      ;  ..
2e6e: 38        loc_2e6e        SEC               ; 8
2e6f: b1 45                     LDA (ZDRVA),Y     ; .E
2e71: e5 51                     SBC HOLD1         ; .Q
2e73: 91 45                     STA (ZDRVA),Y     ; .E
2e75: 88                        DEY               ; .
2e76: 30 09                     BMI loc_2e81      ; 0.
2e78: b1 45     loc_2e78        LDA (ZDRVA),Y     ; .E
2e7a: e9 00                     SBC #$00          ; ..
2e7c: 91 45                     STA (ZDRVA),Y     ; .E
2e7e: 88                        DEY               ; .
2e7f: 10 f7                     BPL loc_2e78      ; ..
2e81: b0 09     loc_2e81        BCS loc_2e8c      ; ..
2e83: a9 00                     LDA #$00          ; ..
2e85: a4 54                     LDY ROWCRS        ; .T
2e87: 91 45     loc_2e87        STA (ZDRVA),Y     ; .E
2e89: 88                        DEY               ; .
2e8a: 10 fb                     BPL loc_2e87      ; ..
2e8c: 60        loc_2e8c        RTS               ; Return to caller

2e8d: 85 51     sub_2e8d        STA HOLD1            ;
2e8f: 84 54                     STY ROWCRS           ;
2e91: 18                        CLC                  ;
2e92: 8a                        TXA                  ;
2e93: 69 00                     ADC #$00             ;
2e95: 85 45                     STA ZDRVA            ;
2e97: a9 63                     LDA #$63             ;
2e99: 69 00                     ADC #$00             ;
2e9b: 85 46                     STA ZDRVA+1          ;
2e9d: 60                        RTS                  ; Return to caller

2e9e: a5 0b     loc_2e9e        LDA dat_0009_H+1     ;
2ea0: 49 ff                     EOR #$ff             ;
2ea2: 85 0b                     STA dat_0009_H+1     ;
2ea4: a5 0c                     LDA DOSINI           ;
2ea6: 49 ff                     EOR #$ff             ;
2ea8: 85 0c                     STA DOSINI           ;
2eaa: e6 0b                     INC dat_0009_H+1     ;
2eac: d0 02                     BNE loc_2eb0         ;
2eae: e6 0c                     INC DOSINI           ;
2eb0: a0 00     loc_2eb0        LDY #$00             ;
2eb2: b1 07     loc_2eb2        LDA (dat_0007_L),Y   ;
2eb4: 91 09                     STA (dat_0009_L),Y   ;
2eb6: c8                        INY                  ;
2eb7: d0 04                     BNE loc_2ebd         ;
2eb9: e6 08                     INC dat_0007_H       ;
2ebb: e6 0a                     INC dat_0009_H       ;
2ebd: e6 0b     loc_2ebd        INC dat_0009_H+1     ;
2ebf: d0 f1                     BNE loc_2eb2         ;
2ec1: e6 0c                     INC DOSINI           ;
2ec3: d0 ed                     BNE loc_2eb2         ;
2ec5: 60                        RTS                  ; Return to caller

2ec6: a2 ff     loc_2ec6        LDX #$ff             ;
2ec8: 9a                        TXS                  ;
2ec9: a2 e6                     LDX #$e6             ;
2ecb: a9 00                     LDA #$00             ;
2ecd: 9d b6 18  loc_2ecd        STA loc_18b6,X       ;
2ed0: ca                        DEX                  ;
2ed1: d0 fa                     BNE loc_2ecd         ;
2ed3: a9 00                     LDA #$00             ;
2ed5: 20 0d 1a                  JSR DISPLAY_SUB_1a0d ;
2ed8: a9 07                     LDA #$07             ; Set ???
2eda: 85 16                     STA addr_0016_L      ;     address
2edc: a9 20                     LDA #$20             ;     to
2ede: 85 17                     STA addr_0016_H      ;     $2007 [dat_2007]
2ee0: 20 8c 1c                  JSR sub_1c8c         ;
2ee3: 8e 33 19                  STX dat_1933         ;
2ee6: a9 07                     LDA #$07             ;
2ee8: 8d 13 19                  STA dat_1913         ;
2eeb: a9 20                     LDA #$20             ;
2eed: 8d 23 19                  STA dat_1923         ;
2ef0: a9 19                     LDA #$19             ;
2ef2: 8d 09 19                  STA dat_1909         ;
2ef5: a9 00                     LDA #$00             ; Set
2ef7: 8d 0b 19                  STA dat_190b_L       ;    address @ $190b/$190c
2efa: a9 76                     LDA #$76             ;    to
2efc: 8d 0c 19                  STA dat_190c_H       ;    $7600
2eff: 20 ad 2c                  JSR sub_2cad         ;
2f02: 20 00 76                  JSR $7600            ;
2f05: a9 02                     LDA #$02             ;
2f07: 8d 53 02                  STA dat_0253         ;
2f0a: a9 ff                     LDA #$ff             ;
2f0c: 8d 00 ac                  STA MAP_NUMBER       ;
2f0f: 8d 00 76                  STA $7600            ;
2f12: 8d f0 96                  STA TEX_HEADERS      ;
2f15: 8d 35 19                  STA dat_1935         ;
2f18: a9 01                     LDA #$01             ;
2f1a: 20 0d 1a                  JSR DISPLAY_SUB_1a0d ;
2f1d: a2 07                     LDX #$07             ;
2f1f: bd 09 63  loc_2f1f        LDA TME_MINUTES,X    ;
2f22: 95 35                     STA BFENHI,X         ;
2f24: ca                        DEX                  ;
2f25: 10 f8                     BPL loc_2f1f         ;
2f27: e8                        INX                  ;
2f28: 86 32                     STX dat_0032_L       ;
2f2a: 86 0f                     STX APPMHI+1         ;
2f2c: a2 13                     LDX #$13             ;
2f2e: a9 47     loc_2f2e        LDA #$47             ;
2f30: 9d a3 45                  STA loc_45a3,X       ;
2f33: ca                        DEX                  ;
2f34: a9 e5                     LDA #$e5             ;
2f36: 9d a3 45                  STA loc_45a3,X       ;
2f39: ca                        DEX                  ;
2f3a: 10 f2                     BPL loc_2f2e         ;
2f3c: a9 17                     LDA #$17             ; Set ???
2f3e: 85 16                     STA addr_0016_L      ;     address
2f40: a9 39                     LDA #$39             ;     to
2f42: 85 17                     STA addr_0016_H      ;     $3917 [str_3917]
2f44: 20 84 1c                  JSR sub_1c84         ;
2f47: a9 69                     LDA #$69             ; Set ???
2f49: 85 16                     STA addr_0016_L      ;     address
2f4b: a9 39                     LDA #$39             ;     to
2f4d: 85 17                     STA addr_0016_H      ;     $3969 [str_3969]
2f4f: 20 84 1c                  JSR sub_1c84         ;
2f52: a2 08                     LDX #$08             ;
2f54: 8e 34 19                  STX loc_1934         ;
2f57: ca                        DEX                  ;
2f58: bd 70 2f  loc_2f58        LDA loc_2f70,X       ;
2f5b: 9d 13 19                  STA dat_1913,X       ;
2f5e: bd 78 2f                  LDA loc_2f78,X       ;
2f61: 9d 23 19                  STA dat_1923,X       ;
2f64: 8e 33 19                  STX dat_1933         ;
2f67: ca                        DEX                  ;
2f68: 10 ee                     BPL loc_2f58         ;
2f6a: 20 2d 3c                  JSR sub_3c2d         ;
2f6d: 4c 8c 31                  JMP loc_318c         ; Continue execution @ $318c [loc_318c]

2f70: de 84 31  loc_2f70        DEC loc_3184,X    ;
2f73: a2 d1                     LDX #$d1          ;
2f75: e9 03                     SBC #$03          ;
2f77: 00                        BRK               ; .
2f78: 3c        loc_2f78        .BYTE $3c         ; <
2f79: 3d 3e 3e                  AND loc_3e3e,X    ; =>>
2f7c: 3e 3e 3f                  ROL loc_3f3e,X    ; >>?
2f7f: 00                        BRK               ; .

2f80: 20 2c 32  loc_2f80        JSR sub_322c         ;
2f83: ad 00 76                  LDA $7600            ;
2f86: cd 1e 63                  CMP CHR_UNK_BYTE_631E ;
2f89: f0 5a                     BEQ loc_2fe5         ;
2f8b: a9 ff                     LDA #$ff             ;
2f8d: 8d 12 19                  STA ZONE_ID          ;
2f90: 8d 38 19                  STA UNK_BYTE_1938    ;
2f93: 8d 6a 19                  STA UNK_BYTE_196A    ;
2f96: 8d 39 19                  STA UNK_BYTE_1939    ;
2f99: 8d 5f 19                  STA UNK_BYTE_195F    ;
2f9c: 8d 60 19                  STA UNK_BYTE_1960    ;
2f9f: ad 1e 63                  LDA CHR_UNK_BYTE_631E ;
2fa2: c9 01                     CMP #$01             ;
2fa4: f0 14                     BEQ loc_2fba         ;
2fa6: c9 02                     CMP #$02             ;
2fa8: f0 10                     BEQ loc_2fba         ;
2faa: ad 1f 63                  LDA CHR_UNK_BYTE_631F  ;
2fad: c9 01                     CMP #$01             ;
2faf: f0 09                     BEQ loc_2fba         ;
2fb1: c9 02                     CMP #$02             ;
2fb3: f0 05                     BEQ loc_2fba         ;
2fb5: a9 01                     LDA #$01             ;
2fb7: 20 0d 1a                  JSR DISPLAY_SUB_1a0d ;
2fba: a9 00     loc_2fba        LDA #$00             ; Set
2fbc: 8d 0b 19                  STA dat_190b_L       ;   ??
2fbf: a9 76                     LDA #$76             ;   address
2fc1: 8d 0c 19                  STA dat_190c_H       ;   to $7600
2fc4: ad 1e 63                  LDA CHR_UNK_BYTE_631E  ;
2fc7: 18                        CLC                  ;
2fc8: 69 10                     ADC #$10             ;
2fca: 8d 09 19                  STA dat_1909         ;
2fcd: a9 ff                     LDA #$ff             ;
2fcf: 8d 0e 19                  STA dat_190e         ;
2fd2: 20 c2 2c                  JSR sub_2cc2         ;
2fd5: 90 03                     BCC loc_2fda         ;
2fd7: 4c 83 31                  JMP loc_3183         ; Continue execution @ $3183 [loc_3183]
2fda: a2 f3     loc_2fda        LDX #$f3             ;
2fdc: a9 00                     LDA #$00             ;
2fde: 95 00     loc_2fde        STA LINZBS,X         ;
2fe0: ca                        DEX                  ;
2fe1: e0 62                     CPX #$62             ;
2fe3: b0 f9                     BCS loc_2fde         ;
2fe5: ad 1f 63  loc_2fe5        LDA CHR_UNK_BYTE_631F  ;
2fe8: cd 1e 63                  CMP CHR_UNK_BYTE_631E  ;
2feb: f0 03                     BEQ loc_2ff0         ;
2fed: 20 01 76                  JSR JMP_SUB_7601     ;
2ff0: 6c 77 19  loc_2ff0        JMP (cont_addr_1977_L)  ; Continue execution at requested address

2ff3: 20 8b 40  loc_2ff3        JSR sub_408b         ;
2ff6: 20 6f 38                  JSR sub_386f         ;
2ff9: ad 58 19                  LDA UNK_BYTE_1958    ;
2ffc: 30 0f                     BMI loc_300d         ;
2ffe: ad 59 19                  LDA UNK_BYTE_1959    ;
3001: c9 02                     CMP #$02             ;
3003: d0 08                     BNE loc_300d         ;
3005: a9 ff                     LDA #$ff             ;
3007: 8d 58 19                  STA UNK_BYTE_1958    ;
300a: 20 96 35                  JSR sub_3596         ;
300d: ad 71 19  loc_300d        LDA loc_1971         ;
3010: 30 6d                     BMI loc_307f         ;
3012: ad 00 76                  LDA $7600            ;
3015: d0 68                     BNE loc_307f         ;
3017: ad 79 19                  LDA loc_1979         ;
301a: 10 16                     BPL loc_3032         ;
301c: a9 00                     LDA #$00             ;
301e: 8d 79 19                  STA loc_1979         ;
3021: ad 1e 63                  LDA CHR_UNK_BYTE_631E  ;
3024: 8d 1f 63                  STA CHR_UNK_BYTE_631F  ;
3027: a9 02                     LDA #$02             ;
3029: 8d 1e 63                  STA CHR_UNK_BYTE_631E  ;
302c: 20 07 76                  JSR JMP_SUB_7607     ;
302f: 4c 80 2f                  JMP loc_2f80         ; Continue execution @ $2f80 [loc_2f80]
3032: ad 7b 19  loc_3032        LDA loc_197b         ;
3035: f0 05                     BEQ loc_303c         ;
3037: a9 47                     LDA #$47             ;
3039: 4c aa 30                  JMP loc_30aa         ; Continue execution @ $30aa [loc_30aa]
303c: ad 20 63  loc_303c        LDA CHR_UNK_BYTE_6320  ;
303f: 10 05                     BPL loc_3046         ;
3041: ad 5d 19                  LDA UNK_BYTE_195D    ;
3044: f0 39                     BEQ loc_307f         ;
3046: a9 ff     loc_3046        LDA #$ff             ;
3048: 8d 5d 19                  STA UNK_BYTE_195D    ;
304b: ad 16 63                  LDA $6316            ;
304e: c9 12                     CMP #$12             ;
3050: d0 18                     BNE loc_306a         ;
3052: ad 17 63                  LDA $6317            ;
3055: c9 12                     CMP #$12             ;
3057: d0 11                     BNE loc_306a         ;
3059: ad 1e 63                  LDA CHR_UNK_BYTE_631E  ;
305c: 8d 1f 63                  STA CHR_UNK_BYTE_631F  ;
305f: a9 01                     LDA #$01             ;
3061: 8d 1e 63                  STA CHR_UNK_BYTE_631E  ;
3064: 20 07 76                  JSR JMP_SUB_7607     ;
3067: 4c 80 2f                  JMP loc_2f80         ; Continue execution @ $2f80 [loc_2f80]
306a: ce 56 19  loc_306a        DEC UNK_BYTE_COUNTER ;
306d: a2 01                     LDX #$01             ;
306f: bd 16 63  loc_306f        LDA $6316,X          ;
3072: 9d 5b 19                  STA loc_195b,X       ;
3075: a9 12                     LDA #$12             ;
3077: 9d 16 63                  STA $6316,X          ;
307a: ca                        DEX                  ;
307b: 10 f2                     BPL loc_306f         ;
307d: 30 5c                     BMI loc_30db         ;
307f: a9 00     loc_307f        LDA #$00             ;
3081: 8d 5d 19                  STA UNK_BYTE_195D    ;
3084: ad 68 19                  LDA UNK_BYTE_1968    ;
3087: c9 01                     CMP #$01             ;
3089: 90 1a                     BCC loc_30a5         ;
308b: ad 0a d2                  LDA RANDOM           ;
308e: c9 10                     CMP #$10             ;
3090: b0 13                     BCS loc_30a5         ;
3092: ad 0a d2                  LDA RANDOM           ;
3095: cd 68 19                  CMP UNK_BYTE_1968    ;
3098: b0 0b                     BCS loc_30a5         ;
309a: 29 01                     AND #$01             ;
309c: aa                        TAX                  ;
309d: bd e1 30                  LDA dat_30e1,X       ;
30a0: 85 31                     STA CHKSUM           ;
30a2: 4c aa 30                  JMP loc_30aa         ; Continue execution @ $30aa [loc_30aa]
30a5: 20 43 26  loc_30a5        JSR sub_2643         ;
30a8: 30 31                     BMI loc_30db         ;
30aa: 20 a5 2b  loc_30aa        JSR sub_2ba5         ;
30ad: a2 0c                     LDX #$0c             ;
30af: dd 78 3b  loc_30af        CMP dat_3b78,X       ;
30b2: f0 06                     BEQ loc_30ba         ;
30b4: ca                        DEX                  ;
30b5: 10 f8                     BPL loc_30af         ;
30b7: 4c de 30                  JMP loc_30de         ; Continue execution @ $30de [loc_30de]
30ba: 2c 37 19  loc_30ba        BIT loc_1937         ;
30bd: 10 06                     BPL loc_30c5         ;
30bf: e0 05                     CPX #$05             ;
30c1: b0 02                     BCS loc_30c5         ;
30c3: 90 19                     BCC loc_30de         ;
30c5: bd 85 3b  loc_30c5        LDA loc_3b85,X       ;
30c8: 8d d2 30                  STA loc_30d2         ;
30cb: bd 92 3b                  LDA loc_3b92,X       ;
30ce: 8d d3 30                  STA loc_30d3         ;
30d1: 20 ff ff                  JSR $ffff            ;
30d4: a9 ff                     LDA #$ff             ;
30d6: 85 31                     STA CHKSUM           ;
30d8: 20 6f 38                  JSR sub_386f         ;
30db: ad 0a d2  loc_30db        LDA RANDOM           ;
30de: 6c 77 19  loc_30de        JMP (cont_addr_1977_L)  ; Continue execution at requested address

30e1: 2c 2e     dat_30e1        .BYTE $2c,$2e

30e3: a9 00     loc_30e3        LDA #$00             ;
30e5: 8d 75 19                  STA UNK_BYTE_1975    ;
30e8: ad 1e 63                  LDA CHR_UNK_BYTE_631E ;
30eb: 8d 1f 63                  STA CHR_UNK_BYTE_631F ;
30ee: 20 31 35                  JSR sub_3531         ;
30f1: a5 2e                     LDA ICAX5Z           ;
30f3: 2c 74 3b                  BIT BMASK_01         ;
30f6: d0 2c                     BNE loc_3124         ;
30f8: 2c 75 3b                  BIT BMASK_02         ;
30fb: d0 1e                     BNE loc_311b         ;
30fd: 2c 76 3b                  BIT BMASK_04         ;
3100: d0 06                     BNE loc_3108         ;
3102: ee 12 63                  INC CHR_LOC_ORIENT   ;
3105: 4c 0b 31                  JMP loc_310b         ;
3108: ce 12 63  loc_3108        DEC CHR_LOC_ORIENT   ;
310b: ad 12 63  loc_310b        LDA CHR_LOC_ORIENT   ;
310e: 29 03                     AND #$03             ;
3110: 8d 12 63                  STA CHR_LOC_ORIENT   ;
3113: a9 ff                     LDA #$ff             ;
3115: 8d 75 19                  STA UNK_BYTE_1975    ;
3118: 4c 80 31                  JMP loc_3180         ;
311b: ad 12 63  loc_311b        LDA CHR_LOC_ORIENT   ;
311e: 09 04                     ORA #$04             ;
3120: aa                        TAX                  ;
3121: 4c 27 31                  JMP loc_3127         ;
3124: ae 12 63  loc_3124        LDX CHR_LOC_ORIENT   ;
3127: 8e 7f 31  loc_3127        STX loc_317f         ;
312a: 20 ca 32                  JSR sub_32ca         ;
312d: bd 44 3b                  LDA dat_3b44,X       ;
3130: 49 01                     EOR #$01             ;
3132: a8                        TAY                  ;
3133: a9 11                     LDA #$11             ;
3135: 99 16 63                  STA $6316,Y          ;
3138: bc 44 3b                  LDY dat_3b44,X       ;
313b: bd 54 3b                  LDA dat_3b54,X       ;
313e: 30 0a                     BMI DO_MOVE_FORWARD  ;
3140: b9 16 63                  LDA $6316,Y          ;
3143: 18                        CLC                  ;
3144: 6d 83 63                  ADC CHR_MOVE_SPEED   ;
3147: 4c 51 31                  JMP loc_3151         ;
314a: b9 16 63  DO_MOVE_FORWARD  LDA $6316,Y         ;
314d: 38                        SEC                  ;
314e: ed 83 63                  SBC CHR_MOVE_SPEED   ;
3151: 99 16 63  loc_3151        STA $6316,Y          ;
3154: c9 24                     CMP #$24             ;
3156: 90 28                     BCC loc_3180         ;
3158: 18                        CLC                  ;
3159: 7d 4c 3b                  ADC dat_3b4c,X       ;
315c: 99 16 63                  STA $6316,Y          ;
315f: bc 64 3b                  LDY dat_3b64,X       ;
3162: b1 10                     LDA (POKMSK),Y       ;
3164: bc 6c 3b                  LDY dat_3b6c,X       ;
3167: 10 04                     BPL loc_316d         ;
3169: 4a                        LSR                  ;
316a: 4a                        LSR                  ;
316b: 4a                        LSR                  ;
316c: 4a                        LSR                  ;
316d: 29 0f     loc_316d        AND #$0f             ;
316f: a8                        TAY                  ;
3170: b9 24 3b                  LDA dat_3b24,Y       ;
3173: 8d 7d 31                  STA loc_317d         ;
3176: b9 34 3b                  LDA loc_3b34,Y       ;
3179: 8d 7e 31                  STA loc_317e         ;
317c: 4c ff ff                  JMP $ffff            ;
317f: 00        loc_317f        BRK                  ;
3180: 4c 8c 31  loc_3180        JMP loc_318c         ;
3183: 20 ca 32  loc_3183        JSR sub_32ca         ;
3186: ad 1e 63                  LDA CHR_UNK_BYTE_631E ;
3189: 8d 1f 63                  STA CHR_UNK_BYTE_631F ;
318c: ad 15 63  loc_318c        LDA CHR_LOC_MAP      ;
318f: cd 00 ac                  CMP MAP_NUMBER       ;
3192: f0 25                     BEQ loc_31b9         ;
3194: aa                        TAX                  ;
3195: bd 25 32                  LDA loc_3225,X       ;
3198: 8d 1d 63                  STA $631d            ;
319b: 8a                        TXA                  ;
319c: 18                        CLC                  ;
319d: 69 01                     ADC #$01             ;
319f: 8d 09 19                  STA dat_1909         ;
31a2: a9 01                     LDA #$01             ;
31a4: 20 0d 1a                  JSR DISPLAY_SUB_1a0d ;
31a7: a9 00                     LDA #$00             ; Set
31a9: 8d 0b 19                  STA dat_190b_L       ;    ???
31ac: a9 ac                     LDA #$ac             ;    address
31ae: 8d 0c 19                  STA dat_190c_H       ;    to $ac00
31b1: 20 ad 2c                  JSR sub_2cad         ;
31b4: a9 ff                     LDA #$ff             ;
31b6: 8d 12 19                  STA ZONE_ID          ;
31b9: 20 31 35  loc_31b9        JSR sub_3531         ;
31bc: a0 02                     LDY #$02             ;
31be: b1 10                     LDA (POKMSK),Y       ;
31c0: 8d 74 19                  STA UNK_BYTE_1974    ;
31c3: a0 03                     LDY #$03             ;
31c5: b1 10                     LDA (POKMSK),Y       ;
31c7: 10 2f                     BPL loc_31f8         ;
31c9: 29 1f                     AND #$1f             ;
31cb: 8d 5a 19                  STA TELEPORT_INDEX   ;
31ce: a9 00                     LDA #$00             ;
31d0: 8d 1e 63                  STA CHR_UNK_BYTE_631E ;
31d3: 2c 58 19                  BIT UNK_BYTE_1958    ;
31d6: 30 35                     BMI loc_320d         ;
31d8: b1 10                     LDA (POKMSK),Y       ;
31da: 2a                        ROL                  ;
31db: 2a                        ROL                  ;
31dc: 2a                        ROL                  ;
31dd: 2a                        ROL                  ;
31de: 29 03                     AND #$03             ;
31e0: 8d 59 19                  STA UNK_BYTE_1959    ;
31e3: aa                        TAX                  ;
31e4: bd 9f 3b                  LDA loc_3b9f,X       ;
31e7: 8d f6 31                  STA loc_31f6         ;
31ea: bd a3 3b                  LDA loc_3ba3,X       ;
31ed: 8d f7 31                  STA loc_31f7         ;
31f0: a9 ff                     LDA #$ff             ;
31f2: 8d 58 19                  STA UNK_BYTE_1958    ;
31f5: 4c ff ff                  JMP $ffff            ;
31f8: 29 1f     loc_31f8        AND #$1f             ;
31fa: 8d 1e 63                  STA CHR_UNK_BYTE_631E ;
31fd: a9 ff                     LDA #$ff             ;
31ff: 8d 59 19                  STA UNK_BYTE_1959    ;
3202: b1 10                     LDA (POKMSK),Y       ;
3204: 2a                        ROL                  ;
3205: 2a                        ROL                  ;
3206: 2a                        ROL                  ;
3207: 2a                        ROL                  ;
3208: 29 03                     AND #$03             ;
320a: 8d 73 19                  STA loc_1973         ;
320d: ad 1f 63  loc_320d        LDA CHR_UNK_BYTE_631F ;
3210: c9 ff                     CMP #$ff             ;
3212: f0 0e                     BEQ loc_3222         ;
3214: ad 1e 63                  LDA CHR_UNK_BYTE_631E ;
3217: cd 1f 63                  CMP CHR_UNK_BYTE_631F ;
321a: d0 03                     BNE loc_321f         ;
321c: 4c 80 2f                  JMP loc_2f80         ;
321f: 20 04 76  loc_321f        JSR JMP_SUB_7604     ;
3222: 4c 80 2f  loc_3222        JMP loc_2f80         ;
3225: 01 01     loc_3225        ORA (LINZBS+1,X)     ;
3227: 01 01                     ORA (LINZBS+1,X)     ;
3229: 02 03 04                  .BYTE $02,$03,$04    ;
322c: ad 00 ac  sub_322c        LDA MAP_NUMBER       ;
322f: cd 15 63                  CMP CHR_LOC_MAP      ;
3232: d0 62                     BNE END_SUB_RTS_3296 ;
3234: ad 74 19                  LDA UNK_BYTE_1974    ;
3237: cd 39 19                  CMP UNK_BYTE_1939    ;
323a: f0 5a                     BEQ END_SUB_RTS_3296 ;
323c: 8d 39 19                  STA UNK_BYTE_1939    ;
323f: a9 be                     LDA #$be             ; Set ???
3241: 85 16                     STA addr_0016_L      ;     address
3243: a9 32                     LDA #$32             ;     to
3245: 85 17                     STA addr_0016_H      ;     $32be []
3247: 20 84 1c                  JSR sub_1c84         ;
324a: ad 01 ac                  LDA MAP_HEADER_RTCLOK0 ;
324d: 85 12                     STA RTCLOK           ;
324f: ad 02 ac                  LDA MAP_HEADER_RTCLOK1 ;
3252: 85 13                     STA RTCLOK+1         ;
3254: a0 00                     LDY #$00             ;
3256: ae 74 19                  LDX UNK_BYTE_1974    ;
3259: ca        loc_3259        DEX                  ;
325a: 30 0f                     BMI loc_326b         ;
325c: b1 12     loc_325c        LDA (RTCLOK),Y       ;
325e: e6 12                     INC RTCLOK           ;
3260: d0 02                     BNE loc_3264         ;
3262: e6 13                     INC RTCLOK+1         ;
3264: 09 00     loc_3264        ORA #$00             ;
3266: f0 f1                     BEQ loc_3259         ;
3268: 4c 5c 32                  JMP loc_325c         ;
326b: b1 12     loc_326b        LDA (RTCLOK),Y       ;
326d: e6 12                     INC RTCLOK           ;
326f: d0 02                     BNE loc_3273         ;
3271: e6 13                     INC RTCLOK+1         ;
3273: 09 00     loc_3273        ORA #$00             ;
3275: f0 3a                     BEQ loc_32b1         ;
3277: 10 32                     BPL loc_32ab         ;
3279: 29 7f                     AND #$7f             ;
327b: aa                        TAX                  ;
327c: a9 03                     LDA #$03             ;
327e: 85 14                     STA RTCLOK+2         ;
3280: a9 ac                     LDA #$ac             ;
3282: 85 15                     STA BUFADR           ;
3284: ca        loc_3284        DEX                  ;
3285: 30 10                     BMI loc_3297         ;
3287: b1 14     loc_3287        LDA (RTCLOK+2),Y     ;
3289: e6 14                     INC RTCLOK+2         ;
328b: d0 02                     BNE loc_328f         ;
328d: e6 15                     INC BUFADR           ;
328f: 09 00     loc_328f        ORA #$00             ;
3291: 30 f1                     BMI loc_3284         ;
3293: 4c 87 32                  JMP loc_3287         ;
3296: 60        END_SUB_RTS_3296  RTS                ;
3297: b1 14     loc_3297        LDA (RTCLOK+2),Y     ;
3299: 08                        PHP                  ;
329a: e6 14                     INC RTCLOK+2         ;
329c: d0 02                     BNE loc_32a0         ;
329e: e6 15                     INC BUFADR           ;
32a0: 29 7f     loc_32a0        AND #$7f             ;
32a2: 20 2c 1c                  JSR sub_1c2c         ;
32a5: 28                        PLP                  ;
32a6: 30 c3                     BMI loc_326b         ;
32a8: 4c 97 32                  JMP loc_3297         ;
32ab: 20 2c 1c  loc_32ab        JSR sub_1c2c         ;
32ae: 4c 6b 32                  JMP loc_326b         ;
32b1: a5 1f     loc_32b1        LDA dat_001f         ;
32b3: f0 e1                     BEQ END_SUB_RTS_3296 ;
32b5: a9 20                     LDA #$20             ;
32b7: 20 2c 1c                  JSR sub_1c2c         ;
32ba: 4c b1 32                  JMP loc_32b1         ;

32bd: 60                        RTS               ;
32be: a6 01                     LDX LINZBS+1      ; ..
32c0: 04                        .BYTE $04         ; .
32c1: 59 6f 75                  EOR $756f,Y       ; You
32c4: 20 61 72                  JSR $7261         ;  ar
32c7: 65 20                     ADC dat_0020      ; e
32c9: ff                        .BYTE $ff         ; .

32ca: 8a        sub_32ca        TXA                  ;
32cb: 48                        PHA                  ;
32cc: a2 04                     LDX #$04             ;
32ce: bd 13 63  loc_32ce        LDA CHR_LOC_X,X      ;
32d1: 9d 18 63                  STA $6318,X          ;
32d4: ca                        DEX                  ;
32d5: 10 f7                     BPL loc_32ce         ;
32d7: 68                        PLA                  ;
32d8: aa                        TAX                  ;
32d9: 60                        RTS                  ; Return to caller

; TODO: How does this code get executed?
32da: bc 44 3b                  LDY dat_3b44,X       ;
32dd: bd 5c 3b                  LDA loc_3b5c,X       ;
32e0: d9 1b 63                  CMP $631b,Y          ;
32e3: d0 08                     BNE loc_32ed         ;
32e5: a9 ff                     LDA #$ff             ;
32e7: 8d 54 19                  STA loc_1954         ;
32ea: bd 5c 3b                  LDA loc_3b5c,X       ;
32ed: 99 16 63  loc_32ed        STA $6316,Y          ;
32f0: 4c 80 31                  JMP loc_3180         ;
32f3: bc 44 3b  loc_32f3        LDY dat_3b44,X       ;
32f6: bd 5c 3b                  LDA loc_3b5c,X       ;
32f9: d9 1b 63                  CMP $631b,Y          ;
32fc: d0 03                     BNE loc_3301         ;
32fe: bd 5c 3b                  LDA loc_3b5c,X       ;
3301: 99 16 63  loc_3301        STA $6316,Y          ;
3304: 4c 80 31                  JMP loc_3180         ;

3307: a9 80                     LDA #$80             ;
3309: 8d 9c 19                  STA dat_199c         ;
330c: 4c 14 33                  JMP loc_3314         ;
330f: a9 81     loc_330f        LDA #$81             ;
3311: 8d 9c 19                  STA dat_199c         ;
3314: ad 0a d2  loc_3314        LDA RANDOM           ;
3317: 29 51                     AND #$51             ;
3319: d0 03                     BNE loc_331e         ;
331b: ce 5d 19                  DEC UNK_BYTE_195D    ;
331e: ae 7f 31  loc_331e        LDX loc_317f         ;
3321: bc 44 3b                  LDY dat_3b44,X       ;
3324: 18                        CLC                  ;
3325: b9 13 63                  LDA CHR_LOC_X,Y      ;
3328: 7d 54 3b                  ADC dat_3b54,X       ;
332b: 99 13 63                  STA CHR_LOC_X,Y      ;
332e: a9 ff                     LDA #$ff             ;
3330: 8d 75 19                  STA UNK_BYTE_1975    ;
3333: a9 00                     LDA #$00             ;
3335: 8d 58 19                  STA UNK_BYTE_1958    ;
3338: 8d 1a 19                  STA loc_191a         ;
333b: 8d 2a 19                  STA UNK_BYTE_192A    ;
333e: 20 2d 3c                  JSR sub_3c2d         ;
3341: 4c 80 31                  JMP loc_3180         ;
3344: a9 00                     LDA #$00             ;
3346: f0 06                     BEQ loc_334e         ;
3348: a9 01                     LDA #$01             ;
334a: d0 02                     BNE loc_334e         ;
334c: a9 02                     LDA #$02             ;
334e: 8d 70 19  loc_334e        STA loc_1970         ;
3351: ad 88 63                  LDA $6388            ;
3354: 29 02                     AND #$02             ;
3356: f0 09                     BEQ loc_3361         ;
3358: 4d 88 63                  EOR $6388            ;
335b: 8d 88 63                  STA $6388            ;
335e: 4c 0f 33                  JMP loc_330f         ;
3361: ce 37 19  loc_3361        DEC loc_1937         ;
3364: ce 71 19                  DEC loc_1971         ;
3367: a9 07                     LDA #$07             ; Set ???
3369: 85 16                     STA addr_0016_L      ;     address
336b: a9 20                     LDA #$20             ;     to
336d: 85 17                     STA addr_0016_H      ;     $2007 [dat_2007]
336f: 20 a5 3c                  JSR sub_3ca5         ;
3372: ad 33 19                  LDA dat_1933         ;
3375: 8d 2e 35                  STA loc_352e         ;
3378: a2 03                     LDX #$03             ;
337a: bd 6b 19  loc_337a        LDA loc_196b,X       ;
337d: dd 12 63                  CMP CHR_LOC_ORIENT,X ;
3380: d0 05                     BNE loc_3387         ;
3382: ca                        DEX                  ;
3383: 10 f5                     BPL loc_337a         ;
3385: 30 10                     BMI loc_3397         ;
3387: a9 00     loc_3387        LDA #$00             ;
3389: 8d 6f 19                  STA loc_196f         ;
338c: a2 03                     LDX #$03             ;
338e: bd 12 63  loc_338e        LDA CHR_LOC_ORIENT,X ;
3391: 9d 6b 19                  STA loc_196b,X       ;
3394: ca                        DEX                  ;
3395: 10 f7                     BPL loc_338e         ;
3397: ad 6f 19  loc_3397        LDA loc_196f         ;
339a: 10 03                     BPL loc_339f         ;
339c: 4c 7e 34                  JMP loc_347e         ;
339f: a9 b0     loc_339f        LDA #$b0             ; Set ???
33a1: 85 16                     STA addr_0016_L      ;     address
33a3: a9 39                     LDA #$39             ;     to
33a5: 85 17                     STA addr_0016_H      ;     $39b0 [str_DOOR_MENU]
33a7: ae 2e 35                  LDX loc_352e         ;
33aa: 20 5c 3c                  JSR sub_3c5c         ;
      ; It seems like a simple JSR $2ff3 would have been simpler here...
33ad: ad 77 19  loc_33ad        LDA cont_addr_1977_L ; Preserve the current
33b0: 8d 2f 35                  STA loc_352f         ;     value of cont_addr_1977_L
33b3: ad 78 19                  LDA UNK_MEMREF_HI_1978  ; Preserve the current
33b6: 8d 30 35                  STA loc_3530         ;     value of UNK_MEMREF_HI_1978
33b9: a9 c6                     LDA #$c6             ; Set ???
33bb: 8d 77 19                  STA cont_addr_1977_L ;    address
33be: a9 33                     LDA #$33             ;     to
33c0: 8d 78 19                  STA UNK_MEMREF_HI_1978  ;     $33c6 [cont_33c6]
33c3: 4c f3 2f                  JMP loc_2ff3         ;
33c6: ad 2f 35  cont_33c6       LDA loc_352f         ; Restore the previous
33c9: 8d 77 19                  STA cont_addr_1977_L ;     value of cont_addr_1977_L
33cc: ad 30 35                  LDA loc_3530         ; Restore the previous
33cf: 8d 78 19                  STA UNK_MEMREF_HI_1978  ;     value of UNK_MEMREF_HI_1978
33d2: ad 5d 19                  LDA UNK_BYTE_195D    ;
33d5: 10 0f                     BPL loc_33e6         ;
33d7: ee 37 19                  INC loc_1937         ;
33da: ee 71 19                  INC loc_1971         ;
33dd: 20 c2 3c                  JSR sub_3cc2         ;
33e0: ae 12 63                  LDX CHR_LOC_ORIENT   ;
33e3: 4c f3 32                  JMP loc_32f3         ;
33e6: a5 31     loc_33e6        LDA CHKSUM           ;
33e8: 30 c3                     BMI loc_33ad         ;
33ea: 38                        SEC                  ;
33eb: e9 30                     SBC #$30             ;
33ed: c9 05                     CMP #$05             ;
33ef: b0 ae                     BCS loc_339f         ;
33f1: c9 01                     CMP #$01             ;
33f3: d0 5f                     BNE loc_3454         ;
33f5: a9 cd                     LDA #$cd             ; Set ???
33f7: 85 16                     STA addr_0016_L      ;     address
33f9: a9 3a                     LDA #$3a             ;     to
33fb: 85 17                     STA addr_0016_H      ;     $3acd [str_DOOR_EXMN]
33fd: ae 2e 35                  LDX loc_352e         ;
3400: 20 5c 3c                  JSR sub_3c5c         ;
3403: a2 f0                     LDX #$f0             ;
3405: 20 66 2c  loc_3405        JSR WAIT_FOR_VBLK_B  ;
3408: ca                        DEX                  ;
3409: d0 fa                     BNE loc_3405         ;
340b: ad 6f 19                  LDA loc_196f         ;
340e: 29 01                     AND #$01             ;
3410: d0 0a                     BNE loc_341c         ;
3412: ad 0a d2                  LDA RANDOM           ;
3415: 4a                        LSR                  ;
3416: 4a                        LSR                  ;
3417: cd 69 63                  CMP CHR_WIS_EFFECTIVE ;
341a: b0 2d                     BCS loc_3449         ;
341c: ae 70 19  loc_341c        LDX loc_1970         ;
341f: bd f9 3a                  LDA dat_3af9,X       ;
3422: 8d 61 3a                  STA loc_3a61         ;
3425: bd fc 3a                  LDA loc_3afc,X       ;
3428: 8d 62 3a                  STA dat_3a62         ;
342b: ad 6f 19                  LDA loc_196f         ;
342e: 09 01                     ORA #$01             ;
3430: 8d 6f 19                  STA loc_196f         ;
3433: a9 48                     LDA #$48             ; Set ???
3435: 85 16                     STA addr_0016_L      ;     address
3437: a9 3a                     LDA #$3a             ;     to
3439: 85 17                     STA addr_0016_H      ;     $3a48 [str_DOOR_APRS]
343b: ae 2e 35  loc_343b        LDX loc_352e         ;
343e: 20 5c 3c                  JSR sub_3c5c         ;
3441: a9 04                     LDA #$04             ;
3443: 20 fc 2b                  JSR sub_2bfc         ;
3446: 4c 9f 33                  JMP loc_339f         ;
3449: a9 66     loc_3449        LDA #$66             ; Set ???
344b: 85 16                     STA addr_0016_L      ;     address
344d: a9 3a                     LDA #$3a             ;     to
344f: 85 17                     STA addr_0016_H      ;     $3a66 [str_DOOR_UNKN]
3451: 4c 3b 34                  JMP loc_343b         ;
3454: c9 02     loc_3454        CMP #$02             ;
3456: d0 63                     BNE loc_34bb         ;
3458: a9 91                     LDA #$91             ; Set ???
345a: 85 16                     STA addr_0016_L      ;     address
345c: a9 3a                     LDA #$3a             ;     to
345e: 85 17                     STA addr_0016_H      ;     $3a91 [str_DOOR_WHAM]
3460: ae 2e 35                  LDX loc_352e         ;
3463: 20 5c 3c                  JSR sub_3c5c         ;
3466: a9 01                     LDA #$01             ;
3468: 20 fc 2b                  JSR sub_2bfc         ;
346b: ce 5f 19                  DEC UNK_BYTE_195F    ;
346e: ad 0a d2                  LDA RANDOM           ;
3471: 4a                        LSR                  ;
3472: cd 59 63                  CMP CHR_STR_EFFECTIVE ;
3475: b0 2c                     BCS loc_34a3         ;
3477: ad 70 19                  LDA loc_1970         ;
347a: c9 01                     CMP #$01             ;
347c: d0 25                     BNE loc_34a3         ;
347e: a9 9c     loc_347e        LDA #$9c             ; Set ???
3480: 85 16                     STA addr_0016_L      ;     address
3482: a9 3a                     LDA #$3a             ;     to
3484: 85 17                     STA addr_0016_H      ;     $3a9c [str_DOOR_OPNS]
3486: ae 2e 35                  LDX loc_352e         ;
3489: 20 5c 3c                  JSR sub_3c5c         ;
348c: 20 b0 2b                  JSR sub_2bb0         ;
348f: ad 6f 19                  LDA loc_196f         ;
3492: 09 80                     ORA #$80             ;
3494: 8d 6f 19                  STA loc_196f         ;
3497: ee 37 19                  INC loc_1937         ;
349a: ee 71 19                  INC loc_1971         ;
349d: 20 c2 3c                  JSR sub_3cc2         ;
34a0: 4c 0f 33                  JMP loc_330f         ;
34a3: ad 0a d2  loc_34a3        LDA RANDOM           ;
34a6: 29 01                     AND #$01             ;
34a8: 18                        CLC                  ;
34a9: 69 01                     ADC #$01             ;
34ab: a2 45                     LDX #$45             ;
34ad: 20 66 2e                  JSR sub_2e66         ;
34b0: a9 b1                     LDA #$b1             ; Set ???
34b2: 85 16                     STA addr_0016_L      ;     address
34b4: a9 3a                     LDA #$3a             ;     to
34b6: 85 17                     STA addr_0016_H      ;     $3ab1 [str_DOOR_FAIL]
34b8: 4c 3b 34                  JMP loc_343b         ;
34bb: c9 03     loc_34bb        CMP #$03             ;
34bd: d0 1a                     BNE loc_34d9         ;
34bf: ad bf 63                  LDA INV_KEYS         ;
34c2: d0 0b                     BNE loc_34cf         ;
34c4: a9 4d                     LDA #$4d             ; Set ???
34c6: 85 16                     STA addr_0016_L      ;     addr
34c8: a9 61                     LDA #$61             ;     to
34ca: 85 17                     STA addr_0016_H      ;     $614d []
34cc: 4c 3b 34                  JMP loc_343b         ;
34cf: ce bf 63  loc_34cf        DEC INV_KEYS         ;
34d2: ad 70 19                  LDA loc_1970         ;
34d5: d0 cc                     BNE loc_34a3         ;
34d7: f0 a5                     BEQ loc_347e         ;
34d9: c9 04     loc_34d9        CMP #$04             ;
34db: d0 3b                     BNE loc_3518         ;
34dd: a9 e1                     LDA #$e1             ; Set ???
34df: 85 16                     STA addr_0016_L      ;     addr
34e1: a9 3a                     LDA #$3a             ;     to
34e3: 85 17                     STA addr_0016_H      ;     $3ae1 [str_DOOR_CONC]
34e5: ae 2e 35                  LDX loc_352e         ;
34e8: 20 5c 3c                  JSR sub_3c5c         ;
34eb: a2 78                     LDX #$78             ;
34ed: 20 66 2c  loc_34ed        JSR WAIT_FOR_VBLK_B  ;
34f0: ca                        DEX                  ;
34f1: d0 fa                     BNE loc_34ed         ;
34f3: a9 01                     LDA #$01             ;
34f5: a2 65                     LDX #$65             ;
34f7: 20 69 2e                  JSR sub_2e69         ;
34fa: ad 0a d2                  LDA RANDOM           ;
34fd: 4a                        LSR                  ;
34fe: cd 61 63                  CMP CHR_INT_EFFECTIVE ;
3501: b0 0a                     BCS loc_350d         ;
3503: ad 70 19                  LDA loc_1970         ;
3506: c9 02                     CMP #$02             ;
3508: d0 03                     BNE loc_350d         ;
350a: 4c 7e 34                  JMP loc_347e         ;
350d: a9 b1     loc_350d        LDA #$b1             ; Set ???
350f: 85 16                     STA addr_0016_L      ;     address
3511: a9 3a                     LDA #$3a             ;     to
3513: 85 17                     STA addr_0016_H      ;     $3ab1 [str_DOOR_FAIL]
3515: 4c 3b 34                  JMP loc_343b         ;
3518: c9 00     loc_3518        CMP #$00             ;
351a: f0 03                     BEQ loc_351f         ;
351c: 4c 9f 33                  JMP loc_339f         ;
351f: 20 c2 3c  loc_351f        JSR sub_3cc2         ;
3522: ae 12 63                  LDX CHR_LOC_ORIENT   ;
3525: ee 37 19                  INC loc_1937         ;
3528: ee 71 19                  INC loc_1971         ;
352b: 4c f3 32                  JMP loc_32f3         ;

352e: 00        loc_352e        BRK               ; .
352f: ff        loc_352f        .BYTE $ff         ; Used to temporarily store the value of cont_addr_1977_L
3530: ff        loc_3530        .BYTE $ff         ; Used to temporarily store the value of UNK_MEMREF_HI_1978

3531: ad 14 63  sub_3531        LDA CHR_LOC_Y     ; ..c
3534: 4a                        LSR               ; J
3535: 09 b0                     ORA #$b0          ; ..
3537: 85 11                     STA BRKKEY        ; ..
3539: a9 00                     LDA #$00          ; ..
353b: 6a                        ROR               ; j
353c: 85 10                     STA POKMSK        ; ..
353e: ad 13 63                  LDA CHR_LOC_X     ; ..c
3541: 0a                        ASL               ; .
3542: 0a                        ASL               ; .
3543: 05 10                     ORA POKMSK        ; ..
3545: 85 10                     STA POKMSK        ; ..
3547: 60                        RTS               ; `
3548: ad 5a 19                  LDA TELEPORT_INDEX  ; .Z.
354b: a2 75                     LDX #$75          ; .u
354d: a0 00                     LDY #$00          ; ..
354f: 20 e3 2d                  JSR sub_2de3      ;  .-
3552: b0 08                     BCS loc_355c      ; ..
3554: a9 ff                     LDA #$ff          ; ..
3556: 8d 5d 19                  STA UNK_BYTE_195D  ; .].
3559: 4c 0d 32                  JMP loc_320d      ; L.2
355c: a9 ff     loc_355c        LDA #$ff          ; ..
355e: 8d 59 19                  STA UNK_BYTE_1959  ; .Y.
3561: 4c 0d 32                  JMP loc_320d      ; L.2
3564: ad 5a 19                  LDA TELEPORT_INDEX  ; .Z.
3567: a2 75                     LDX #$75          ; .u
3569: a0 04                     LDY #$04          ; ..
356b: 20 e3 2d                  JSR sub_2de3      ;  .-
356e: b0 ec                     BCS loc_355c      ; ..
3570: ad 5a 19                  LDA TELEPORT_INDEX  ; .Z.
3573: a2 75                     LDX #$75          ; .u
3575: a0 04                     LDY #$04          ; ..
3577: 38                        SEC               ; 8
3578: 20 ab 2d                  JSR sub_2dab      ;  .-
357b: a9 ff                     LDA #$ff          ; ..
357d: 8d 79 19                  STA loc_1979      ; .y.
3580: 4c 0d 32                  JMP loc_320d      ; L.2

3583: 20 96 35                  JSR sub_3596         ;
3586: b0 03                     BCS loc_358b         ;
3588: 4c 0d 32                  JMP loc_320d         ;
358b: a9 00     loc_358b        LDA #$00             ;
358d: 8d 58 19                  STA UNK_BYTE_1958    ;
3590: 8d 2a 19                  STA UNK_BYTE_192A    ;
3593: 4c 0d 32                  JMP loc_320d         ;

3596: ad 00 76  sub_3596        LDA $7600            ;
3599: d0 24                     BNE loc_35bf         ;
359b: ad 0a 76                  LDA $760a            ;
359e: 85 12                     STA RTCLOK           ;
35a0: ad 0b 76                  LDA $760b            ;
35a3: 85 13                     STA RTCLOK+1         ;
35a5: ad 5a 19                  LDA TELEPORT_INDEX   ;
35a8: 0a                        ASL                  ;
35a9: a8                        TAY                  ;
35aa: b1 12                     LDA (RTCLOK),Y       ;
35ac: 8d 1a 19                  STA loc_191a         ;
35af: c8                        INY                  ;
35b0: b1 12                     LDA (RTCLOK),Y       ;
35b2: 8d 2a 19                  STA UNK_BYTE_192A    ;
35b5: a9 07                     LDA #$07             ;
35b7: 8d 33 19                  STA dat_1933         ;
35ba: 20 2d 3c                  JSR sub_3c2d         ;
35bd: 18                        CLC                  ;
35be: 60                        RTS                  ; Return to caller
35bf: 38        loc_35bf        SEC                  ;
35c0: 60                        RTS                  ; Return to caller

35c1: ad 5a 19  DO_TELEPORT_PLAYER  LDA TELEPORT_INDEX    ; Load teleport index param into A (0-31)
35c4: 0a                        ASL                       ; Multiply A by 4 to get table offset
35c5: 0a                        ASL                       ;     (table entries are 4 bytes)
35c6: aa                        TAX                       ; Store A into X
35c7: bd a7 3b                  LDA TELEPORT_TBL_X,X      ; Load teleport X coordinate
35ca: 8d 13 63                  STA CHR_LOC_X             ;     into player location X
35cd: bd a8 3b                  LDA TELEPORT_TBL_Y,X      ; Load teleport Y coordinate
35d0: 8d 14 63                  STA CHR_LOC_Y             ;     into player location X
35d3: bd a9 3b                  LDA TELEPORT_TBL_MAP,X    ; Load teleport map number
35d6: 8d 15 63                  STA CHR_LOC_MAP           ;     into player location map #
35d9: bd aa 3b                  LDA TELEPORT_TBL_ORIENT,X ; Load teleport orientation into A
35dc: 10 09                     BPL loc_35e7              ; If A >= 0, skip next 4 instructions (explicit orientation)
35de: c9 ff                     CMP #$ff                  ; If A == -1,
35e0: f0 08                     BEQ loc_35ea              ;     skip next 3 instructions (leave current orientation)
35e2: ad 0a d2                  LDA RANDOM                ; Read random byte into A
35e5: 29 03                     AND #$03                  ; Bit AND with 3 (A = 0..3) (random orientation)
35e7: 8d 12 63  loc_35e7        STA CHR_LOC_ORIENT        ; Store A into character orientation
    ; The following section flashes the screen a few times
    ; 1. Copy 5 bytes starting @ 18ba [CUR_COLPF0, CUR_COLPF1, CUR_COLPF2, ]
    ;    to 5 byte temp area just past this sub.
    XXXXXX
    ; 2. All five of The color value #$1A is loaded into the 5 bytes at 18BA
    ; 3. Wait for 5 VBLKI to pass
    ; 4. The color value 0 is loaded into the 5 bytes at 18BA
    ; 5. Wait for 5 VBLKI to pass
    ; 6. Repeat 7 more iterations from 2 (e.g. 8 loops total)
    ; 7 Restore the original 5 bytes to 18BA
35ea: a2 04     loc_35ea        LDX #$04             ; Load 4 into X (loop 5 times)
35ec: bd ba 18  loc_35ec        LDA CUR_COLPF0,X     ; Copy current value from $18BA+X
35ef: 9d 30 36                  STA TLPTMPBUF,X      ;     into temp buffer storage
35f2: ca                        DEX                  ; Subtract 1 from X
35f3: 10 f7                     BPL loc_35ec         ; Loop while X >= 0 (5 iterations)
35f5: a0 08                     LDY #$08             ; Load 8 into Y (loops 8 times)
35f7: a9 1a     loc_35f7        LDA #$1a             ; Load #$1A (26 / %00011010) into A
35f9: a2 04                     LDX #$04             ; Load 4 into X (loops 5 times)
35fb: 9d ba 18  loc_35fb        STA CUR_COLPF0,X     ;
35fe: ca                        DEX                  ; Subtract 1 from X
35ff: 10 fa                     BPL loc_35fb         ; Loop while X >= 0 (5 iterations)
3601: 20 66 2c                  JSR WAIT_FOR_VBLK_B  ; Wait for next vertical blank period
3604: a9 00                     LDA #$00             ; Load 0 into A
3606: a2 04                     LDX #$04             ; Load 4 into X (loop 5 times)
3608: 9d ba 18  loc_3608        STA CUR_COLPF0,X     ;
360b: ca                        DEX                  ; Subtract 1 from X
360c: 10 fa                     BPL loc_3608         ; Loop while X >= 0 (5 iterations)
360e: 20 66 2c                  JSR WAIT_FOR_VBLK_B  ; Wait for next vertical blank period
3611: 88                        DEY                  ; Subtract 1 from Y
3612: d0 e3                     BNE loc_35f7         ; Loop while Y > 0 (8 iterations)
    ; Restore 5 bytes previously copied to temp storage
3614: a2 04                     LDX #$04             ; Load 4 into X (loop 5 times)
3616: bd 30 36  loc_3616        LDA TLPTMPBUF,X      ; Copy previous value from $18BA+X
3619: 9d ba 18                  STA CUR_COLPF0,X     ;     back to $18BA+X
361c: ca                        DEX                  ; Subtract 1 from X
361d: 10 f7                     BPL loc_3616         ; Loop while X >= 0 (5 iterations)
361f: a9 ff                     LDA #$ff             ; Load #$ff (-1) into A
3621: 8d 6a 19                  STA UNK_BYTE_196A    ;
3624: 8d 12 19                  STA ZONE_ID          ; Update current Zone ID to #$ff (-1) to trigger update
3627: 8d 38 19                  STA UNK_BYTE_1938    ;
362a: 8d 39 19                  STA UNK_BYTE_1939    ;
362d: 4c 8c 31                  JMP loc_318c         ; Continue @ $318c [loc_318c]

3630: 00 00 00 00 00  TLPTMPBUF  .BYTE $00,$00,$00,$00,$00  ; 5 bytes of temporary storage

3635: a9 ff     sub_3635        LDA #$ff             ;
3637: 8d 7a 19                  STA loc_197a         ;
363a: c6 0f                     DEC APPMHI+1         ;
363c: c6 32                     DEC dat_0032_L       ;
363e: ce 37 19                  DEC loc_1937         ;
3641: ce 71 19                  DEC loc_1971         ;
3644: ad 77 19                  LDA cont_addr_1977_L ; Preserve the current
3647: 8d 81 36                  STA dat_3681_L       ;     value of cont_addr_1977_L
364a: ad 78 19                  LDA UNK_MEMREF_HI_1978 ; Preserve the current
364d: 8d 82 36                  STA dat_3681_H       ;     value of UNK_MEMREF_HI_1978
3650: a9 07                     LDA #$07             ; Set ???
3652: 85 16                     STA addr_0016_L      ;     address
3654: a9 20                     LDA #$20             ;     to
3656: 85 17                     STA addr_0016_H      ;     $2007 [dat_2007]
3658: 20 a5 3c                  JSR sub_3ca5         ;
365b: ae 33 19                  LDX dat_1933         ;
365e: 8e 4a 19                  STX loc_194a         ;
3661: 60                        RTS                  ; Return to caller

3662: 20 c2 3c  loc_3662        JSR sub_3cc2         ;
3665: ad 81 36                  LDA dat_3681_L       ; Restore the previous value of cont_addr_1977_L
3668: 8d 77 19                  STA cont_addr_1977_L ;     that was saved in sub_3635
366b: ad 82 36                  LDA dat_3681_H       ; Restore the previous value of UNK_MEMREF_HI_1978
366e: 8d 78 19                  STA UNK_MEMREF_HI_1978 ;     that was saved in sub_3635
3671: e6 32                     INC dat_0032_L       ;
3673: ee 37 19                  INC loc_1937         ;
3676: e6 0f                     INC APPMHI+1         ;
3678: ee 71 19                  INC loc_1971         ;
367b: a9 00                     LDA #$00             ;
367d: 8d 7a 19                  STA loc_197a         ;
3680: 60                        RTS                  ; Return to caller

3681: ff        dat_3681_L      .BYTE $ff            ; Used for preserving the value of cont_addr_1977_L
3682: ff        dat_3681_H      .BYTE $ff            ; Used for preserving the value of UNK_MEMREF_HI_1978

; TODO: How does this code get executed
3683: ad 7a 19                  LDA loc_197a         ;
3686: f0 01                     BEQ loc_3689         ;
3688: 60                        RTS                  ; Return to caller
3689: 20 35 36  loc_3689        JSR sub_3635         ;
368c: a9 10                     LDA #$10             ; Set ???
368e: 85 16                     STA addr_0016_L      ;     address
3690: a9 37                     LDA #$37             ;     to
3692: 85 17                     STA addr_0016_H      ;     $3710 []
3694: ae 4a 19                  LDX loc_194a         ;
3697: 20 5c 3c                  JSR sub_3c5c         ;
369a: 20 43 26  loc_369a        JSR sub_2643         ;
369d: 30 fb                     BMI loc_369a         ;
369f: 20 a5 2b                  JSR sub_2ba5         ;
36a2: c9 49                     CMP #$49             ;
36a4: f0 0b                     BEQ loc_36b1         ;
36a6: c9 53                     CMP #$53             ;
36a8: f0 19                     BEQ loc_36c3         ;
36aa: c9 1b                     CMP #$1b             ;
36ac: d0 ec                     BNE loc_369a         ;
36ae: 4c ec 36                  JMP loc_36ec         ;
36b1: a9 ef     loc_36b1        LDA #$ef             ;
36b3: 8d 3a 19                  STA loc_193a         ;
36b6: a9 36                     LDA #$36             ;
36b8: 8d 3b 19                  STA loc_193b         ;
36bb: a9 f0                     LDA #$f0             ; Self-modifying
36bd: 8d b0 51                  STA loc_51b0         ;     code (f0 = BEQ)
36c0: 4c d2 36                  JMP loc_36d2         ;
36c3: a9 d0     loc_36c3        LDA #$d0             ; Self-modifying
36c5: 8d b0 51                  STA loc_51b0         ;     code (d0 = BNE)
36c8: a9 01                     LDA #$01             ;
36ca: 8d 3a 19                  STA loc_193a         ;
36cd: a9 37                     LDA #$37             ;
36cf: 8d 3b 19                  STA loc_193b         ;
36d2: a9 32     loc_36d2        LDA #$32             ;
36d4: 8d 44 19                  STA loc_1944         ;
36d7: a9 37                     LDA #$37             ;
36d9: 8d 45 19                  STA loc_1945         ;
36dc: a9 00                     LDA #$00             ;
36de: 8d 76 62                  STA loc_6276         ;
36e1: 20 b2 50                  JSR sub_50b2         ;
36e4: b0 06     loc_36e4        BCS loc_36ec         ;
36e6: 20 b7 50                  JSR sub_50b7         ;
36e9: 4c e4 36                  JMP loc_36e4         ;
36ec: 4c 62 36  loc_36ec        JMP loc_3662         ;

36ef: 45 78 61 6d 69 6e 65 20  dat_36ef  .BYTE $45,$78,$61,$6d,$69,$6e,$65,$20  ; Examine
36f7: 49 6e 76 65 6e 74 6f 72   .BYTE $49,$6e,$76,$65,$6e,$74,$6f,$72  ; Inventor
36ff: 79 00 45 78 61 6d 69 6e   .BYTE $79,$00,$45,$78,$61,$6d,$69,$6e  ; y.Examin
3707: 65 20 53 70 65 6c 6c 73   .BYTE $65,$20,$53,$70,$65,$6c,$6c,$73  ; e Spells
370f: 00 a6 00 02 a5 45 78 61   .BYTE $00,$a6,$00,$02,$a5,$45,$78,$61  ; .....Exa
3717: 6d 69 6e 65 20 a1 49 a0   .BYTE $6d,$69,$6e,$65,$20,$a1,$49,$a0  ; mine .I.
371f: 74 65 6d 73 20 6f 72 20   .BYTE $74,$65,$6d,$73,$20,$6f,$72,$20  ; tems or
3727: a1 53 a0 70 65 6c 6c 73   .BYTE $a1,$53,$a0,$70,$65,$6c,$6c,$73  ; .S.pells
372f: 3f 0d ff a1 46 a0 6f 72   .BYTE $3f,$0d,$ff,$a1,$46,$a0,$6f,$72  ; ?...F.or
3737: 77 61 72 64 2c 20 a1 42   .BYTE $77,$61,$72,$64,$2c,$20,$a1,$42  ; ward, .B
373f: a0 61 63 6b 2c 20 6f 72   .BYTE $a0,$61,$63,$6b,$2c,$20,$6f,$72  ; .ack, or
3747: 20 a1 45 53 43 a0 20 74   .BYTE $20,$a1,$45,$53,$43,$a0,$20,$74  ;  .ESC. t
374f: 6f 20 65 78 69 74 ae      .BYTE $6f,$20,$65,$78,$69,$74,$ae  ; o exit.

3756: 20 35 36                  JSR sub_3635         ;
3759: 20 57 58                  JSR sub_5857         ;
375c: 4c 62 36                  JMP loc_3662         ;

375f: 20 35 36  loc_375f        JSR sub_3635         ;
3762: 20 b4 5a                  JSR sub_5ab4         ;
3765: 4c 62 36                  JMP loc_3662         ;

3768: 20 35 36                  JSR sub_3635         ;
376b: 20 cb 5a                  JSR sub_5acb         ;
376e: 4c 62 36                  JMP loc_3662         ;

3771: 20 35 36  loc_3771        JSR sub_3635         ;
3774: 20 b6 51                  JSR sub_51b6         ;
3777: 4c 62 36                  JMP loc_3662         ;

377a: 20 35 36                  JSR sub_3635         ;
377d: 20 7e 57                  JSR sub_577e         ;
3780: 4c 62 36                  JMP loc_3662         ;

3783: ad 00 76                  LDA $7600            ;
3786: f0 01                     BEQ loc_3789         ;
3788: 60                        RTS                  ; Return to caller

3789: 20 35 36  loc_3789        JSR sub_3635         ;
378c: a9 be                     LDA #$be             ; Set ???
378e: 85 16                     STA addr_0016_L      ;     address
3790: a9 37                     LDA #$37             ;     to
3792: 85 17                     STA addr_0016_H      ;     $37be []
3794: 20 5c 3c                  JSR sub_3c5c         ;
3797: 20 43 26  loc_3797        JSR sub_2643         ;
379a: 30 fb                     BMI loc_3797         ;
379c: 20 a5 2b                  JSR sub_2ba5         ;
379f: c9 59                     CMP #$59             ;
37a1: d0 18                     BNE loc_37bb         ;
37a3: 20 c2 3c                  JSR sub_3cc2         ;
37a6: a9 31                     LDA #$31             ;
37a8: 8d 09 19                  STA dat_1909         ;
37ab: a9 00                     LDA #$00             ; Set
37ad: 8d 0b 19                  STA dat_190b_L       ;     ??
37b0: a9 76                     LDA #$76             ;     address
37b2: 8d 0c 19                  STA dat_190c_H       ;     to $7600
37b5: 20 ad 2c                  JSR sub_2cad         ;
37b8: 4c 00 76                  JMP $7600            ;
37bb: 4c 62 36  loc_37bb        JMP loc_3662         ;

37be: a6 00                     LDX LINZBS        ; ..
37c0: 02                        .BYTE $02         ; .
37c1: a5 53                     LDA RMARGN        ; .S
37c3: 61 76                     ADC (DELTAR,X)    ; av
37c5: 65 20                     ADC dat_0020      ; e
37c7: 63                        .BYTE $63         ; c
37c8: 68                        PLA               ; h
37c9: 61 72                     ADC (COLAC,X)     ; ar
37cb: 61 63                     ADC (LOGCOL,X)    ; ac
37cd: 74                        .BYTE $74         ; t
37ce: 65 72                     ADC COLAC         ; er
37d0: 3f                        .BYTE $3f         ; ?
37d1: 0d 0d ac                  ORA $ac0d         ; ...
37d4: 2e 38 c6                  ROL $c638         ; .8.
37d7: 32                        .BYTE $32         ; 2

; TODO: How does this code get executed?
37d8: a9 04                     LDA #$04             ; Set ???
37da: 85 16                     STA addr_0016_L      ;     address
37dc: a9 38                     LDA #$38             ;     to
37de: 85 17                     STA addr_0016_H      ;     $3804
37e0: 20 88 1c                  JSR sub_1c88         ;
37e3: 20 43 26  loc_37e3        JSR sub_2643         ;
37e6: 30 fb                     BMI loc_37e3         ;
37e8: 20 a5 2b                  JSR sub_2ba5         ;
37eb: c9 59                     CMP #$59             ;
37ed: d0 0d                     BNE loc_37fc         ;
37ef: a9 00                     LDA #$00             ;
37f1: 8d 2f 02                  STA SDMCTL           ;
37f4: a9 01                     LDA #$01             ;
37f6: 20 0d 1a                  JSR DISPLAY_SUB_1a0d ;
37f9: 4c c6 2e                  JMP loc_2ec6         ;
37fc: e6 32     loc_37fc        INC dat_0032_L       ;
37fe: ce 35 19                  DEC dat_1935         ;
3801: 4c 2d 3c                  JMP sub_3c2d         ;

3804: a8                        TAY               ; .
3805: a6 00                     LDX LINZBS        ; ..
3807: 02                        .BYTE $02         ; .
3808: a5 51                     LDA HOLD1         ; .Q
380a: 75 69                     ADC SAVADR+1,X    ; ui
380c: 74                        .BYTE $74         ; t
380d: 20 67 61                  JSR loc_6167_bad      ;  ga
3810: 6d 65 20                  ADC loc_2065_bad      ; me
3813: 77                        .BYTE $77         ; w
3814: 69 74                     ADC #$74          ; it
3816: 68                        PLA               ; h
3817: 6f                        .BYTE $6f         ; o
3818: 75 74                     ADC ENDPT,X       ; ut
381a: 20 73 61                  JSR sub_6173_bad      ;  sa
381d: 76 69                     ROR SAVADR+1,X    ; vi
381f: 6e 67 20                  ROR loc_2067_bad      ; ng
3822: 63                        .BYTE $63         ; c
3823: 68                        PLA               ; h
3824: 61 72                     ADC (COLAC,X)     ; ar
3826: 61 63                     ADC (LOGCOL,X)    ; ac
3828: 74                        .BYTE $74         ; t
3829: 65 72                     ADC COLAC         ; er
382b: 3f                        .BYTE $3f         ; ?
382c: 0d 0d a5                  ORA $a50d         ; ...
382f: 41 72                     EOR (COLAC,X)     ; Ar
3831: 65 20                     ADC dat_0020      ; e
3833: 79 6f 75                  ADC $756f,Y       ; you
3836: 20 73 75                  JSR $7573         ;  su
3839: 72                        .BYTE $72         ; r
383a: 65 20                     ADC dat_0020      ; e
383c: 28                        PLP               ; (
383d: a1 59                     LDA (SAVMSC+1,X)  ; .Y
383f: a0 20                     LDY #$20          ; .
3841: 6f 72                     .BYTE $6f,$72     ; or
3843: 20 a1 4e                  JSR bad_4ea1      ;  .N
3846: a0 29                     LDY #$29          ; .)
3848: 0d ff c6                  ORA $c6ff         ; ...
384b: 32                        .BYTE $32         ; 2

384c: a9 60                     LDA #$60             ; Set ???
384e: 85 16                     STA addr_0016_L      ;     address
3850: a9 38                     LDA #$38             ;     to
3852: 85 17                     STA addr_0016_H      ;     $3860 []
3854: 20 a5 3c                  JSR sub_3ca5         ;
3857: 20 b0 2b                  JSR sub_2bb0         ;
385a: 20 c2 3c                  JSR sub_3cc2         ;
385d: e6 32                     INC dat_0032_L       ;
385f: 60                        RTS                  ; Return to caller

3860: a8                        TAY               ; .
3861: a6 00                     LDX LINZBS        ; ..
3863: 02                        .BYTE $02         ; .
3864: a5 28                     LDA sub_add_0028_H ; .(
3866: 50 61                     BVC $38c9         ; Pa
3868: 75 73                     ADC COLAC+1,X     ; us
386a: 65 64                     ADC ADRESS        ; ed
386c: 29 0d                     AND #$0d          ; ).
386e: ff                        .BYTE $ff         ; .

386f: a9 00     sub_386f        LDA #$00             ;
3871: 8d cf 38                  STA dat_38cf         ;
3874: a9 d0                     LDA #$d0             ; Set ???
3876: 85 16                     STA addr_0016_L      ;     address
3878: a9 38                     LDA #$38             ;     to
387a: 85 17                     STA addr_0016_H      ;     $38d0 []
387c: ad 1e 63                  LDA CHR_UNK_BYTE_631E ;
387f: f0 01                     BEQ loc_3882         ;
3881: 60                        RTS                  ; Return to caller
3882: a2 0f     loc_3882        LDX #$0f             ;
3884: bd 94 64  loc_3884        LDA $6494,X          ;
3887: c9 02                     CMP #$02             ;
3889: d0 1b                     BNE loc_38a6         ;
388b: bd a4 64                  LDA $64a4,X          ;
388e: cd 13 63                  CMP CHR_LOC_X        ;
3891: d0 13                     BNE loc_38a6         ;
3893: bd b4 64                  LDA $64b4,X          ;
3896: cd 14 63                  CMP CHR_LOC_Y        ;
3899: d0 0b                     BNE loc_38a6         ;
389b: bd c4 64                  LDA $64c4,X          ;
389e: cd 15 63                  CMP CHR_LOC_MAP      ;
38a1: d0 03                     BNE loc_38a6         ;
38a3: ee cf 38                  INC dat_38cf         ;
38a6: ca        loc_38a6        DEX                  ;
38a7: 10 db                     BPL loc_3884         ;
38a9: ae cf 38                  LDX dat_38cf         ;
38ac: ec 38 19                  CPX UNK_BYTE_1938    ;
38af: f0 1d                     BEQ loc_38ce         ;
38b1: 8e 38 19                  STX UNK_BYTE_1938    ;
38b4: 8a                        TXA                  ;
38b5: f0 14                     BEQ loc_38cb         ;
38b7: a9 f9                     LDA #$f9             ; Set ???
38b9: 85 16                     STA addr_0016_L      ;     address
38bb: a9 38                     LDA #$38             ;     to $38f9 [str_SOMTH_HRE]
38bd: 85 17                     STA addr_0016_H      ;     ("There is something here")
38bf: e0 02                     CPX #$02             ;
38c1: 90 08                     BCC loc_38cb         ;
38c3: a9 d5                     LDA #$d5             ; Set ???
38c5: 85 16                     STA addr_0016_L      ;     address
38c7: a9 38                     LDA #$38             ;     to
38c9: 85 17                     STA addr_0016_H      ;     $38d5 []
38cb: 20 84 1c  loc_38cb        JSR sub_1c84         ;
38ce: 60        loc_38ce        RTS                  ; Return to caller

38cf: 00 a6 00 05 ab ff a6 00  dat_38cf  .BYTE $00,$a6,$00,$05,$ab,$ff
$a6,$00  ; ........
38d7: 05 20 54 68 65 72 65 20   .BYTE $05,$20,$54,$68,$65,$72,$65,$20  ; . There
38df: 61 72 65 20 73 65 76 65   .BYTE $61,$72,$65,$20,$73,$65,$76,$65  ; are seve
38e7: 72 61 6c 20 74 68 69 6e   .BYTE $72,$61,$6c,$20,$74,$68,$69,$6e  ; ral thin
38ef: 67 73 20 68 65 72 65 2e   .BYTE $67,$73,$20,$68,$65,$72,$65,$2e  ; gs here.
38f7: ab ff                     .BYTE $ab,$ff                          ; ..
38f9: a6 00 05 20 54 68  str_SOMTH_HRE  .BYTE $a6,$00,$05,$20,$54,$68       ; ... Th
38ff: 65 72 65 20 69 73 20 73   .BYTE $65,$72,$65,$20,$69,$73,$20,$73  ; ere is s
3907: 6f 6d 65 74 68 69 6e 67   .BYTE $6f,$6d,$65,$74,$68,$69,$6e,$67  ; omething
390f: 20 68 65 72 65 2e ab ff   .BYTE $20,$68,$65,$72,$65,$2e,$ab,$ff  ;  here...
3917: a8 a6 1f 00 4c 65 76 65  str_3917  .BYTE $a8,$a6,$1f,$00,$4c,$65,$76,$65  ; ....Leve
391f: 6c 3a a6 01 01 53 74 61   .BYTE $6c,$3a,$a6,$01,$01,$53,$74,$61  ; l:...Sta
3927: 74 73 3a 20 20 53 54 41   .BYTE $74,$73,$3a,$20,$20,$53,$54,$41  ; ts:  STA
392f: 20 20 43 48 52 20 20 53   .BYTE $20,$20,$43,$48,$52,$20,$20,$53  ;   CHR  S
3937: 54 52 20 20 49 4e 54 20   .BYTE $54,$52,$20,$20,$49,$4e,$54,$20  ; TR  INT
393f: 20 57 49 53 20 20 53 4b   .BYTE $20,$57,$49,$53,$20,$20,$53,$4b  ;  WIS  SK
3947: 4c a6 03 02 7b a6 01 03   .BYTE $4c,$a6,$03,$02,$7b,$a6,$01,$03  ; L...{...
394f: 45 78 70 65 72 69 65 6e   .BYTE $45,$78,$70,$65,$72,$69,$65,$6e  ; Experien
3957: 63 65 3a a6 17 03 48 69   .BYTE $63,$65,$3a,$a6,$17,$03,$48,$69  ; ce:...Hi
395f: 74 20 50 6f 69 6e 74 73   .BYTE $74,$20,$50,$6f,$69,$6e,$74,$73  ; t Points
3967: 3a ff                     .BYTE $3a,$ff                          ; :.
3969: a6 01 00 b3 21 63  str_3969  .BYTE $a6,$01,$00,$b3,$21,$63       ; ....!c
396f: 1c a6 25 00 b2 3c 63 02   .BYTE $1c,$a6,$25,$00,$b2,$3c,$63,$02  ; ..%..<c.
3977: a6 09 02 b2 49 63 03 20   .BYTE $a6,$09,$02,$b2,$49,$63,$03,$20  ; ....Ic.
397f: 20 b2 51 63 03 20 20 b2   .BYTE $20,$b2,$51,$63,$03,$20,$20,$b2  ;  .Qc.  .
3987: 59 63 03 20 20 b2 61 63   .BYTE $59,$63,$03,$20,$20,$b2,$61,$63  ; Yc.  .ac
398f: 03 20 20 b2 69 63 03 20   .BYTE $03,$20,$20,$b2,$69,$63,$03,$20  ; .  .ic.
3997: 20 b2 71 63 03 a6 0c 03   .BYTE $20,$b2,$71,$63,$03,$a6,$0c,$03  ;  .qc....
399f: b0 3d 63 0a a6 22 03 b1   .BYTE $b0,$3d,$63,$0a,$a6,$22,$03,$b1  ; .=c.."..
39a7: 45 63 05 ff               .BYTE $45,$63,$05,$ff                  ; Ec..
39ab: a6 00 04 ab  str_39ab     .BYTE $a6,$00,$04,$ab                  ; ....
39af: ff                        .BYTE $ff                              ; .
39b0: a6 00 00 a5 54 68 65  str_DOOR_MENU  .BYTE $a6,$00,$00,$a5,$54,$68,$65 ; ....The
39b7: 20 64 6f 6f 72 20 77 6f   .BYTE $20,$64,$6f,$6f,$72,$20,$77,$6f  ;  door wo
39bf: 6e 27 74 20 6f 70 65 6e   .BYTE $6e,$27,$74,$20,$6f,$70,$65,$6e  ; n't open
39c7: 2e 20 59 6f 75 20 6d 61   .BYTE $2e,$20,$59,$6f,$75,$20,$6d,$61  ; . You ma
39cf: 79 3a 0d a6 08 02 28 a1   .BYTE $79,$3a,$0d,$a6,$08,$02,$28,$a1  ; y:....(.
39d7: 31 a0 29 20 45 78 61 6d   .BYTE $31,$a0,$29,$20,$45,$78,$61,$6d  ; 1.) Exam
39df: 69 6e 65 20 74 68 65 20   .BYTE $69,$6e,$65,$20,$74,$68,$65,$20  ; ine the
39e7: 64 6f 6f 72 2e a6 08 03   .BYTE $64,$6f,$6f,$72,$2e,$a6,$08,$03  ; door....
39ef: 28 a1 32 a0 29 20 46 6f   .BYTE $28,$a1,$32,$a0,$29,$20,$46,$6f  ; (.2.) Fo
39f7: 72 63 65 20 74 68 65 20   .BYTE $72,$63,$65,$20,$74,$68,$65,$20  ; rce the
39ff: 64 6f 6f 72 2e a6 08 04   .BYTE $64,$6f,$6f,$72,$2e,$a6,$08,$04  ; door....
3a07: 28 a1 33 a0 29 20 55 73   .BYTE $28,$a1,$33,$a0,$29,$20,$55,$73  ; (.3.) Us
3a0f: 65 20 61 20 6b 65 79 2e   .BYTE $65,$20,$61,$20,$6b,$65,$79,$2e  ; e a key.
3a17: a6 08 05 28 a1 34 a0 29   .BYTE $a6,$08,$05,$28,$a1,$34,$a0,$29  ; ...(.4.)
3a1f: 20 42 72 65 61 6b 20 61   .BYTE $20,$42,$72,$65,$61,$6b,$20,$61  ;  Break a
3a27: 6e 20 65 6e 63 68 61 6e   .BYTE $6e,$20,$65,$6e,$63,$68,$61,$6e  ; n enchan
3a2f: 74 6d 65 6e 74 2e a6 08   .BYTE $74,$6d,$65,$6e,$74,$2e,$a6,$08  ; tment...
3a37: 07 28 a1 30 a0 29 20 4c   .BYTE $07,$28,$a1,$30,$a0,$29,$20,$4c  ; .(.0.) L
3a3f: 65 61 76 65 20 69 74 2e   .BYTE $65,$61,$76,$65,$20,$69,$74,$2e  ; eave it.
3a47: ff                        .BYTE $ff                              ; .
3a48: a6 00 02 a5 54 68 65 20 str_DOOR_APRS  .BYTE $a6,$00,$02,$a5,$54,$68,$65,$20 ; ....The
3a50: 64 6f 6f 72 20 61 70 70   .BYTE $64,$6f,$6f,$72,$20,$61,$70,$70  ; door app
3a58: 65 61 72 73 20 74 6f 20   .BYTE $65,$61,$72,$73,$20,$74,$6f,$20  ; ears to
3a60: b3 ff                     .BYTE $b3,$ff                          ; ..
3a62: ff        dat_3a62        .BYTE $ff                              ; .
3a63: 11 0d ff  str_3a63        .BYTE $11,$0d,$ff                      ; ...
3a66: a6 00 02 a5 59 6f 75 20  str_DOOR_UNKN   .BYTE $a6,$00,$02,$a5,$59,$6f,$75,$20 ; ....You
3a6e: 63 61 6e 27 74 20 64 69   .BYTE $63,$61,$6e,$27,$74,$20,$64,$69  ; can't di
3a76: 73 63 65 72 6e 20 77 68   .BYTE $73,$63,$65,$72,$6e,$20,$77,$68  ; scern wh
3a7e: 61 74 20 62 61 72 73 20   .BYTE $61,$74,$20,$62,$61,$72,$73,$20  ; at bars
3a86: 74 68 65 20 64 6f 6f 72   .BYTE $74,$68,$65,$20,$64,$6f,$6f,$72  ; the door
3a8e: 2e 0d ff                  .BYTE $2e,$0d,$ff                      ; ...
3a91: a6 00 02 a5 57 68 61 6d  str_DOOR_WHAM  .BYTE $a6,$00,$02,$a5,$57,$68,$61,$6d ; ....Wham
3a99: 21 0d ff                  .BYTE $21,$0d,$ff                      ; !..
3a9c: a6 00 02 a5 54 68 65 20  str_DOOR_OPNS  .BYTE $a6,$00,$02,$a5,$54,$68,$65,$20 ; ....The
3aa4: 64 6f 6f 72 20 6f 70 65   .BYTE $64,$6f,$6f,$72,$20,$6f,$70,$65 ; door ope
3aac: 6e 73 21 0d ff            .BYTE $6e,$73,$21,$0d,$ff             ; ns!..
3ab1: a6 00 02 a5 54 68 65 20  str_DOOR_FAIL  .BYTE $a6,$00,$02,$a5,$54,$68,$65,$20 ; ....The
3ab9: 64 6f 6f 72 20 72 65 6d   .BYTE $64,$6f,$6f,$72,$20,$72,$65,$6d  ; door rem
3ac1: 61 69 6e 73 20 73 68 75   .BYTE $61,$69,$6e,$73,$20,$73,$68,$75  ; ains shu
3ac9: 74 2e 0d ff               .BYTE $74,$2e,$0d,$ff                  ; t...
3acd: a6 00 02 a1 a5 45 78 61  str_DOOR_EXMN  .BYTE $a6,$00,$02,$a1,$a5,$45,$78,$61 ; .....Exa
3ad5: 6d 69 6e 69 6e 67 2e 2e   .BYTE $6d,$69,$6e,$69,$6e,$67,$2e,$2e  ; mining..
3add: 2e 0d a0 ff               .BYTE $2e,$0d,$a0,$ff                  ; ....
3ae1: a6 00 02 a1 a5 43 6f 6e  str_DOOR_CONC  .BYTE $a6,$00,$02,$a1,$a5,$43,$6f,$6e ; .....Con
3ae9: 63 65 6e 74 72 61 74 69  .BYTE $63,$65,$6e,$74,$72,$61,$74,$69  ; centrati
3af1: 6e 67 2e 2e 2e 0d a0 ff  .BYTE $6e,$67,$2e,$2e,$2e,$0d,$a0,$ff  ; ng......

3af9: ff 0b 16 3a 3b 3b 6e 65  dat_3af9  .BYTE $ff,$0b,$16,$3a,$3b,$3b,$6e,$65  ; ...:;;ne
3b01: 65 64 20 61 20 6b 65 79   .BYTE $65,$64,$20,$61,$20,$6b,$65,$79  ; ed a key
3b09: 2e 00 62 65 20 62 6f 6c   .BYTE $2e,$00,$62,$65,$20,$62,$6f,$6c  ; ..be bol
3b11: 74 65 64 2e 00 62 65 20   .BYTE $74,$65,$64,$2e,$00,$62,$65,$20  ; ted..be
3b19: 65 6e 63 68 61 6e 74 65   .BYTE $65,$6e,$63,$68,$61,$6e,$74,$65  ; enchante
3b21: 64 21 00                  .BYTE $64,$21,$00    ; d!.

3b24: 21 21 21 0f 0f 07 07 21  dat_3b24  .BYTE $21,$21,$21,$0f,$0f,$07,$07,$21  ; !!!....!
3b2c: 44 48 4c da da da da da   .BYTE $44,$48,$4c,$da,$da,$da,$da,$da  ; DHL.....
3b34: 33 33 33 33 33 33 33 33   .BYTE $33,$33,$33,$33,$33,$33,$33,$33  ; 33333333
3b3c: 33 33 33 32 32 32 32 32   .BYTE $33,$33,$33,$32,$32,$32,$32,$32  ; 33322222

3b44: 01 00 01 00 01 00 01 00  dat_3b44  .BYTE $01,$00,$01,$00,$01,$00,$01,$00  ; ........

3b4c: 24 dc dc 24 dc 24 24 dc  dat_3b4c  .BYTE $24,$dc,$dc,$24,$dc,$24,$24,$dc  ; $..$.$$.

3b54: ff 01 01 ff 01 ff ff 01  dat_3b54  .BYTE $ff,$01,$01,$ff,$01,$ff,$ff,$01  ; ........
3b5c: 00 23 23 00 23 00 00 23   .BYTE $00,$23,$23,$00,$23,$00,$00,$23  ; .##.#..#

3b64: 00 00 01 01 01 01 00 00  dat_3b64  .BYTE $00,$00,$01,$01,$01,$01,$00,$00  ; ........

3b6c: 00 80 00 80 00 80 00 80  dat_3b6c  .BYTE $00,$80,$00,$80,$00,$80,$00,$80  ; ........
3b74: 01        BMASK_01        .BYTE $01            ; .
3b75: 02        BMASK_02        .BYTE $02            ; .
3b76: 04        BMASK_04        .BYTE $04            ; .
3b77: 08        BMASK_08        .BYTE $08
3b78: 47 44     dat_3b78        .BYTE $47,$44     ; GD
3b7a: 55 43                     EOR ZBUFP,X       ; UC
3b7c: 53                        .BYTE $53         ; S
3b7d: 45 51                     EOR HOLD1         ; EQ
3b7f: 50 2c                     BVC loc_3bad      ; P,
3b81: 2e 10 11                  ROL $1110         ; ...
3b84: 13                        .BYTE $13         ; .
3b85: 56 68     loc_3b85        LSR SAVADR,X      ; Vh
3b87: 71 7a                     ADC (COLINC),Y    ; qz
3b89: 83 83                     .BYTE $83,$83     ; ..
3b8b: d6 4a                     DEC CKEY,X        ; .J
3b8d: 8c 71 71                  STY $7171         ; .qq
3b90: 8c ab 37                  STY bad_37ab      ; ..7
3b93: 37 37 37 37               .BYTE $37,$37,$37,$37  ; 7777
3b97: 36 37                     ROL DRETRY,X      ; 67
3b99: 38                        SEC               ; 8
3b9a: 3c 3c 3c 3c               .BYTE $3c,$3c,$3c,$3c  ; <<<<
3b9e: 2c 48 64                  BIT $6448         ; ,Hd
3ba1: 83                        .BYTE $83         ; .
3ba2: c1 35                     CMP (BFENHI,X)    ; .5
3ba4: 35 35                     AND BFENHI,X      ; 55
3ba6: 35 12                     AND RTCLOK,X      ; 5.
3ba8: 1e        TELEPORT_TBL_Y  .BYTE $1e         ; .
3ba9: 00        TELEPORT_TBL_MAP  .BYTE $00       ; .
3baa: ff 12 1b  TELEPORT_TBL_ORIENT  .BYTE $ff,$12,$1b  ; ...
3bad: 00        loc_3bad        BRK               ; .
3bae: 03 13 1b                  .BYTE $03,$13,$1b  ; ...
3bb1: 00                        BRK               ; .
3bb2: 01 0f                     ORA (APPMHI+1,X)  ; ..
3bb4: 17                        .BYTE $17         ; .
3bb5: 00                        BRK               ; .
3bb6: 00                        BRK               ; .
3bb7: 1d 17 00                  ORA addr_0016_H,X ; ...
3bba: 00                        BRK               ; .
3bbb: 05 1a                     ORA dat_001a      ; ..
3bbd: 00                        BRK               ; .
3bbe: ff 14 1f                  .BYTE $ff,$14,$1f  ; ...
3bc1: 00                        BRK               ; .
3bc2: 00                        BRK               ; .
3bc3: 10 01                     BPL bad_3bc6      ; ..
3bc5: 00                        BRK               ; .
3bc6: ff 0b                     .BYTE $ff,$0b     ; ..
3bc8: 01 01                     ORA (LINZBS+1,X)  ; ..
3bca: ff                        .BYTE $ff         ; .
3bcb: 11 07                     ORA (dat_0007_L),Y; ..
3bcd: 01 ff                     ORA (FPTR2+1,X)   ; ..
3bcf: 11 0a                     ORA (dat_0009_H),Y    ; ..
3bd1: 01 ff                     ORA (FPTR2+1,X)   ; ..
3bd3: 0b 1c                     .BYTE $0b,$1c     ; ..
3bd5: 01 ff                     ORA (FPTR2+1,X)   ; ..
3bd7: 0b 1f                     .BYTE $0b,$1f     ; ..
3bd9: 01 ff                     ORA (FPTR2+1,X)   ; ..
3bdb: 08                        PHP               ; .
3bdc: 0f                        .BYTE $0f         ; .
3bdd: 01 80                     ORA (LOMEM,X)     ; ..
3bdf: 12                        .BYTE $12         ; .
3be0: 09 02                     ORA #$02          ; ..
3be2: 80                        .BYTE $80         ; .
3be3: 00                        BRK               ; .
3be4: 01 02                     ORA (dat_0002,X)  ; ..
3be6: ff                        .BYTE $ff         ; .
3be7: 00                        BRK               ; .
3be8: 1e 00 ff                  ASL $ff00,X       ; ...
3beb: 01 00                     ORA (LINZBS,X)    ; ..
3bed: 01 ff                     ORA (FPTR2+1,X)   ; ..
3bef: 1e 00 00                  ASL LINZBS,X      ; ...
3bf2: ff 1f                     .BYTE $ff,$1f     ; ..
3bf4: 1e 01 ff                  ASL $ff01,X       ; ...
3bf7: 1f                        .BYTE $1f         ; .
3bf8: 01 03                     ORA (dat_0003,X)  ; ..
3bfa: ff                        .BYTE $ff         ; .
3bfb: 01 1f                     ORA (dat_001f,X)  ; ..
3bfd: 03 ff                     .BYTE $03,$ff     ; ..
3bff: 1e 1f 02                  ASL CDTMV4+1,X    ; ...
3c02: ff                        .BYTE $ff         ; .
3c03: 00                        BRK               ; .
3c04: 12                        .BYTE $12         ; .
3c05: 05 ff                     ORA FPTR2+1       ; ..
3c07: 0d 0f 05                  ORA $050f         ; ...
3c0a: ff 03                     .BYTE $ff,$03     ; ..
3c0c: 01 03                     ORA (dat_0003,X)  ; ..
3c0e: ff 03                     .BYTE $ff,$03     ; ..
3c10: 1e 01 ff                  ASL $ff01,X       ; ...
3c13: 0b                        .BYTE $0b         ; .
3c14: 00                        BRK               ; .
3c15: 04 ff                     .BYTE $04,$ff     ; ..
3c17: 16 07                     ASL dat_0007_L,X  ; ..
3c19: 01 02                     ORA (dat_0002,X)  ; ..
3c1b: 1a                        .BYTE $1a         ; .
3c1c: 05 01                     ORA LINZBS+1      ; ..
3c1e: 00                        BRK               ; .
3c1f: 1c 07                     .BYTE $1c,$07     ; ..
3c21: 01 02                     ORA (dat_0002,X)  ; ..
3c23: 18                        CLC               ; .
3c24: 1b 02 03                  .BYTE $1b,$02,$03 ;

3c27: cd 33 19  sub_3c27        CMP dat_1933         ; If
3c2a: f0 01                     BEQ sub_3c2d         ;   A <> dat_1933
3c2c: 60                        RTS                  ;   Then return to caller
3c2d: ae 33 19  sub_3c2d        LDX dat_1933         ;
3c30: ec 35 19                  CPX dat_1935         ;
3c33: f0 0b                     BEQ loc_3c40         ;
3c35: a9 07                     LDA #$07             ; Set ???
3c37: 85 16                     STA addr_0016_L      ;     address
3c39: a9 20                     LDA #$20             ;     to
3c3b: 85 17                     STA addr_0016_H      ;     $2007 [dat_2007]
3c3d: 20 88 1c                  JSR sub_1c88         ;
3c40: ae 33 19  loc_3c40        LDX dat_1933         ;
3c43: 8e 35 19                  STX dat_1935         ;
3c46: bd 13 19                  LDA dat_1913,X       ;
3c49: 85 16                     STA addr_0016_L      ;
3c4b: bd 23 19                  LDA dat_1923,X       ;
3c4e: d0 07                     BNE loc_3c57         ;
3c50: a2 00                     LDX #$00             ;
3c52: 8e 33 19                  STX dat_1933         ;
3c55: f0 d6                     BEQ sub_3c2d         ;
3c57: 85 17     loc_3c57        STA addr_0016_H      ;
3c59: 4c 88 1c                  JMP sub_1c88         ; Continue execution @ sub_1c88

3c5c: a9 ff     sub_3c5c        LDA #$ff             ;
3c5e: 8d 35 19                  STA dat_1935         ;
3c61: 8e 33 19  loc_3c61        STX dat_1933         ;
3c64: a5 16                     LDA addr_0016_L      ;
3c66: 9d 13 19                  STA dat_1913,X       ;
3c69: a5 17                     LDA addr_0016_H      ;
3c6b: 9d 23 19                  STA dat_1923,X       ;
3c6e: 4c 2d 3c                  JMP sub_3c2d         ;
3c71: ee 33 19  loc_3c71        INC dat_1933         ;
3c74: ad 33 19                  LDA dat_1933         ;
3c77: cd 34 19                  CMP loc_1934         ;
3c7a: 90 05                     BCC loc_3c81         ;
3c7c: a9 00                     LDA #$00             ;
3c7e: 8d 33 19                  STA dat_1933         ;
3c81: ae 33 19  loc_3c81        LDX dat_1933         ;
3c84: bd 23 19                  LDA dat_1923,X       ;
3c87: f0 e8                     BEQ loc_3c71         ;
3c89: 4c 2d 3c                  JMP sub_3c2d         ;
3c8c: ce 33 19  loc_3c8c        DEC dat_1933         ;
3c8f: 10 09                     BPL loc_3c9a         ;
3c91: ad 34 19                  LDA loc_1934         ;
3c94: 38                        SEC                  ;
3c95: e9 01                     SBC #$01             ;
3c97: 8d 33 19                  STA dat_1933         ;
3c9a: ae 33 19  loc_3c9a        LDX dat_1933         ;
3c9d: bd 23 19                  LDA dat_1923,X       ;
3ca0: f0 ea                     BEQ loc_3c8c         ;
3ca2: 4c 2d 3c                  JMP sub_3c2d         ;
3ca5: ae 33 19  sub_3ca5        LDX dat_1933         ;
3ca8: 8e 36 19                  STX loc_1936         ;
3cab: ae 34 19                  LDX loc_1934         ;
3cae: 8e 33 19                  STX dat_1933         ;
3cb1: a5 16                     LDA addr_0016_L      ;
3cb3: 9d 13 19                  STA dat_1913,X       ;
3cb6: a5 17                     LDA addr_0016_H      ;
3cb8: 9d 23 19                  STA dat_1923,X       ;
3cbb: e8                        INX                  ;
3cbc: 8e 34 19                  STX loc_1934         ;
3cbf: 4c 2d 3c                  JMP sub_3c2d         ;
3cc2: ce 34 19  sub_3cc2        DEC loc_1934         ;
3cc5: ad 33 19                  LDA dat_1933         ;
3cc8: cd 34 19                  CMP loc_1934         ;
3ccb: 90 10                     BCC loc_3cdd         ;
3ccd: ad 36 19                  LDA loc_1936         ;
3cd0: cd 34 19                  CMP loc_1934         ;
3cd3: 90 02                     BCC loc_3cd7         ;
3cd5: a9 00                     LDA #$00             ;
3cd7: 8d 33 19  loc_3cd7        STA dat_1933         ;
3cda: 4c 2d 3c                  JMP sub_3c2d         ;
3cdd: 60        loc_3cdd        RTS                  ; Return to caller

3cde: a6 00                     LDX LINZBS        ; ..
3ce0: 00                        BRK               ; .
3ce1: 46 6f                     LSR SHFAMT        ; Fo
3ce3: 6f 64                     .BYTE $6f,$64     ; od
3ce5: 20 50 61                  JSR loc_6150      ;  Pa
3ce8: 63 6b                     .BYTE $63,$6b     ; ck
3cea: 65 74                     ADC ENDPT         ; et
3cec: 73                        .BYTE $73         ; s
3ced: a6 10                     LDX POKMSK        ; ..
3cef: 00                        BRK               ; .
3cf0: 54 6f 72 63               .BYTE $54,$6f,$72,$63  ; Torc
3cf4: 68                        PLA               ; h
3cf5: 65 73                     ADC COLAC+1       ; es
3cf7: a7 57                     .BYTE $a7,$57     ; .W
3cf9: 61 74                     ADC (ENDPT,X)     ; at
3cfb: 65 72                     ADC COLAC         ; er
3cfd: 20 46 6c                  JSR $6c46         ;  Fl
3d00: 61 73                     ADC (COLAC+1,X)   ; as
3d02: 6b 73                     .BYTE $6b,$73     ; ks
3d04: 0d a6 05                  ORA LBUFF+38      ; ...
3d07: 01 b2                     ORA ($b2,X)       ; ..
3d09: bb 63 03                  .BYTE $bb,$63,$03 ; .c.
3d0c: a6 12                     LDX RTCLOK        ; ..
3d0e: 01 b2                     ORA ($b2,X)       ; ..
3d10: bd 63 03                  LDA D32_553_SDVR+3,X  ; .c.
3d13: a6 21                     LDX dat_0021      ; .!
3d15: 01 b2                     ORA ($b2,X)       ; ..
3d17: bc 63 03                  LDY D32_553_SDVR+3,X  ; .c.
3d1a: 0d 0d a5                  ORA $a50d         ; ...
3d1d: 59 6f 75                  EOR $756f,Y       ; You
3d20: 20 61 72                  JSR $7261         ;  ar
3d23: 65 20                     ADC dat_0020      ; e
3d25: 6f                        .BYTE $6f         ; o
3d26: 6e 20 6c                  ROR $6c20         ; n l
3d29: 65 76                     ADC DELTAR        ; ev
3d2b: 65 6c                     ADC BUFSTR        ; el
3d2d: 20 b2 1d                  JSR ccc_1db2      ;  ..
3d30: 63                        .BYTE $63         ; c
3d31: 01 0d                     ORA (DOSINI+1,X)  ; ..
3d33: a5 6f                     LDA SHFAMT        ; .o
3d35: 66 20                     ROR dat_0020      ; f
3d37: 74                        .BYTE $74         ; t
3d38: 68                        PLA               ; h
3d39: 65 20                     ADC dat_0020      ; e
3d3b: 44                        .BYTE $44         ; D
3d3c: 75 6e                     ADC BITMSK,X      ; un
3d3e: 67                        .BYTE $67         ; g
3d3f: 65 6f                     ADC SHFAMT        ; eo
3d41: 6e 0d a6                  ROR $a60d         ; n..
3d44: 00                        BRK               ; .
3d45: 04                        .BYTE $04         ; .
3d46: b4 a9                     LDY $a9,X         ; ..
3d48: 45 0c                     EOR DOSINI        ; E.
3d4a: 0d b4 a7                  ORA $a7b4         ; ...
3d4d: 45 0c                     EOR DOSINI        ; E.
3d4f: 0d b4 a5                  ORA $a5b4         ; ...
3d52: 45 0c                     EOR DOSINI        ; E.
3d54: 0d b4 ad                  ORA $adb4         ; ...
3d57: 45 0c                     EOR DOSINI        ; E.
3d59: a6 1c                     LDX dat_001c      ; ..
3d5b: 04                        .BYTE $04         ; .
3d5c: b4 ab                     LDY $ab,X         ; ..
3d5e: 45 0c                     EOR DOSINI        ; E.
3d60: a6 1c                     LDX dat_001c      ; ..
3d62: 05 b4                     ORA $b4           ; ..
3d64: a3                        .BYTE $a3         ; .
3d65: 45 0c                     EOR DOSINI        ; E.
3d67: a6 1c                     LDX dat_001c      ; ..
3d69: 06 b4                     ASL $b4           ; ..
3d6b: b3                        .BYTE $b3         ; .
3d6c: 45 0c                     EOR DOSINI        ; E.
3d6e: a6 1c                     LDX dat_001c      ; ..
3d70: 07                        .BYTE $07         ; .
3d71: b4 b1                     LDY $b1,X         ; ..
3d73: 45 0c                     EOR DOSINI        ; E.
3d75: a6 0e                     LDX APPMHI        ; ..
3d77: 06 b4                     ASL $b4           ; ..
3d79: b5 45                     LDA ZDRVA,X       ; .E
3d7b: 0c                        .BYTE $0c         ; .
3d7c: a6 0e                     LDX APPMHI        ; ..
3d7e: 07                        .BYTE $07         ; .
3d7f: b4 af                     LDY $af,X         ; ..
3d81: 45 0c                     EOR DOSINI        ; E.
3d83: ff                        .BYTE $ff         ; .
3d84: a6 00                     LDX LINZBS        ; ..
3d86: 00                        BRK               ; .
3d87: 47 6f                     .BYTE $47,$6f     ; Go
3d89: 6c 64 20                  JMP (loc_2064)    ; ld
3d8c: 43 6f                     .BYTE $43,$6f     ; Co
3d8e: 69 6e                     ADC #$6e          ; in
3d90: 73                        .BYTE $73         ; s
3d91: 20 20 20                  JSR loc_2020      ;
3d94: 53                        .BYTE $53         ; S
3d95: 69 6c                     ADC #$6c          ; il
3d97: 76 65                     ROR ADRESS+1,X    ; ve
3d99: 72                        .BYTE $72         ; r
3d9a: 20 43 6f                  JSR $6f43         ;  Co
3d9d: 69 6e                     ADC #$6e          ; in
3d9f: 73                        .BYTE $73         ; s
3da0: 20 20 20                  JSR loc_2020      ;
3da3: 43 6f                     .BYTE $43,$6f     ; Co
3da5: 70 70                     BVS loc_3e17      ; pp
3da7: 65 72                     ADC COLAC         ; er
3da9: 20 43 6f                  JSR $6f43         ;  Co
3dac: 69 6e                     ADC #$6e          ; in
3dae: 73                        .BYTE $73         ; s
3daf: 20 20 b1                  JSR $b120         ;   .
3db2: b1 63                     LDA (LOGCOL),Y    ; .c
3db4: 06 a6                     ASL $a6           ; ..
3db6: 10 01                     BPL loc_3db9      ; ..
3db8: b1 b3                     LDA ($b3),Y       ; ..
3dba: 63                        .BYTE $63         ; c
3dbb: 06 a6                     ASL $a6           ; ..
3dbd: 1f                        .BYTE $1f         ; .
3dbe: 01 b1                     ORA ($b1,X)       ; ..
3dc0: b5 63                     LDA LOGCOL,X      ; .c
3dc2: 06 a6                     ASL $a6           ; ..
3dc4: 0c 03 4f 74               .BYTE $0c,$03,$4f,$74  ; ..Ot
3dc8: 68                        PLA               ; h
3dc9: 65 72                     ADC COLAC         ; er
3dcb: 20 50 6f                  JSR $6f50         ;  Po
3dce: 73 73                     .BYTE $73,$73     ; ss
3dd0: 65 73                     ADC COLAC+1       ; es
3dd2: 73                        .BYTE $73         ; s
3dd3: 69 6f                     ADC #$6f          ; io
3dd5: 6e 73 a6                  ROR $a673         ; ns.
3dd8: 07                        .BYTE $07         ; .
3dd9: 05 47                     ORA ZSBA          ; .G
3ddb: 65 6d                     ADC BUFSTR+1      ; em
3ddd: 73 3a                     .BYTE $73,$3a     ; s:
3ddf: b1 b7                     LDA ($b7),Y       ; ..
3de1: 63                        .BYTE $63         ; c
3de2: 06 a6                     ASL $a6           ; ..
3de4: 1c                        .BYTE $1c         ; .
3de5: 05 4b                     ORA CASSBT        ; .K
3de7: 65 79                     ADC ROWINC        ; ey
3de9: 73 3a b2 bf 63 03         .BYTE $73,$3a,$b2,$bf,$63,$03  ; s:..c.
3def: a6 05                     LDX dat_0005      ; ..
3df1: 06 4a                     ASL CKEY          ; .J
3df3: 65 77                     ADC DELTAC        ; ew
3df5: 65 6c                     ADC BUFSTR        ; el
3df7: 73 3a                     .BYTE $73,$3a     ; s:
3df9: b1 b9                     LDA ($b9),Y       ; ..
3dfb: 63                        .BYTE $63         ; c
3dfc: 06 a6                     ASL $a6           ; ..
3dfe: 17                        .BYTE $17         ; .
3dff: 06 43                     ASL ZBUFP         ; .C
3e01: 6f                        .BYTE $6f         ; o
3e02: 6d 70 61                  ADC loc_6170      ; mpa
3e05: 73 73                     .BYTE $73,$73     ; ss
3e07: 65 73                     ADC COLAC+1       ; es
3e09: 3a b2                     .BYTE $3a,$b2     ; :.
3e0b: c0 63                     CPY #$63          ; .c
3e0d: 03                        .BYTE $03         ; .
3e0e: a6 03                     LDX dat_0003      ; ..
3e10: 07 43 72                  .BYTE $07,$43,$72  ; .Cr
3e13: 79 73 74                  ADC $7473,Y       ; yst
3e16: 61 6c                     ADC (BUFSTR,X)    ; al
3e18: 73 3a b2                  .BYTE $73,$3a,$b2  ; s:.
3e1b: be 63 03                  LDX D32_553_SDVR+3,Y  ; .c.
3e1e: a6 16                     LDX addr_0016_L ; ..
3e20: 07 54                     .BYTE $07,$54     ; .T
3e22: 69 6d                     ADC #$6d          ; im
3e24: 65 70                     ADC ROWAC         ; ep
3e26: 69 65                     ADC #$65          ; ie
3e28: 63                        .BYTE $63         ; c
3e29: 65 73                     ADC COLAC+1       ; es
3e2b: 3a b2                     .BYTE $3a,$b2     ; :.
3e2d: c1 63                     CMP (LOGCOL,X)    ; .c
3e2f: 03 ff                     .BYTE $03,$ff     ; ..
3e31: a6 00                     LDX LINZBS        ; ..
3e33: 00                        BRK               ; .
3e34: a5 57                     LDA DINDEX        ; .W
3e36: 65 61                     ADC NEWCOL        ; ea
3e38: 70 6f                     BVS loc_3ea9      ; po
3e3a: 6e 73 0d                  ROR $0d73         ; ns.
3e3d: a3                        .BYTE $a3         ; .
3e3e: 41 3f     loc_3e3e        EOR (FEOF,X)      ; A?
3e40: a6 00                     LDX LINZBS        ; ..
3e42: 01 50                     ORA (TEMP,X)      ; .P
3e44: 72                        .BYTE $72         ; r
3e45: 69 6d                     ADC #$6d          ; im
3e47: 61 72                     ADC (COLAC,X)     ; ar
3e49: 79 3a 20                  ADC loc_203a,Y    ; y:
3e4c: b4 7f                     LDY COUNTR+1,X    ; .
3e4e: 40                        RTI               ;
3e4f: 1f ab                     .BYTE $1f,$ab     ; ..
3e51: a6 00                     LDX LINZBS        ; ..
3e53: 02 53                     .BYTE $02,$53     ; .S
3e55: 65 63                     ADC LOGCOL        ; ec
3e57: 6f                        .BYTE $6f         ; o
3e58: 6e 64 61                  ROR loc_6164      ; nda
3e5b: 72                        .BYTE $72         ; r
3e5c: 79 3a 20                  ADC loc_203a,Y    ; y:
3e5f: b4 81                     LDY LOMEM+1,X     ; ..
3e61: 40                        RTI               ;
3e62: 1d ab 0d                  ORA $0dab,X       ; ...
3e65: a5 41                     LDA SOUNDR        ; .A
3e67: 72                        .BYTE $72         ; r
3e68: 6d 6f 72                  ADC $726f         ; mor
3e6b: 0d 48 65                  ORA $6548         ; .He
3e6e: 61 64                     ADC (ADRESS,X)    ; ad
3e70: 3a                        .BYTE $3a         ; :
3e71: 20 b4 83                  JSR $83b4         ;  ..
3e74: 40                        RTI               ;
3e75: 22 ab                     .BYTE $22,$ab     ; ".
3e77: a6 00                     LDX LINZBS        ; ..
3e79: 05 42                     ORA CRITIC        ; .B
3e7b: 6f 64                     .BYTE $6f,$64     ; od
3e7d: 79 3a 20                  ADC loc_203a,Y    ; y:
3e80: b4 85                     LDY VNTD+1,X      ; ..
3e82: 40                        RTI               ;
3e83: 22 ab                     .BYTE $22,$ab     ; ".
3e85: a6 00                     LDX LINZBS        ; ..
3e87: 06 41                     ASL SOUNDR        ; .A
3e89: 72                        .BYTE $72         ; r
3e8a: 6d 73 3a                  ADC bad_3a73      ; ms:
3e8d: 20 b4 87                  JSR $87b4         ;  ..
3e90: 40                        RTI               ;
3e91: 22 ab                     .BYTE $22,$ab     ; ".
3e93: a6 00                     LDX LINZBS        ; ..
3e95: 07                        .BYTE $07         ; .
3e96: 4c 65 67                  JMP $6765         ; Leg
3e99: 73 3a                     .BYTE $73,$3a     ; s:
3e9b: 20 b4 89                  JSR $89b4         ;  ..
3e9e: 40                        RTI               ;
3e9f: 22 ab ff                  .BYTE $22,$ab,$ff  ; "..
3ea2: a6 00                     LDX LINZBS        ; ..
3ea4: 00                        BRK               ; .
3ea5: a5 41                     LDA SOUNDR        ; .A
3ea7: 70 70                     BVS loc_3f19      ; pp
3ea9: 61 72     loc_3ea9        ADC (COLAC,X)     ; ar
3eab: 65 6c                     ADC BUFSTR        ; el
3ead: 0d a3 8d  loc_3ead        ORA $8da3         ; ...
3eb0: 3f                        .BYTE $3f         ; ?
3eb1: a6 0a                     LDX dat_0009_H        ; ..
3eb3: 02                        .BYTE $02         ; .
3eb4: a2 b4     loc_3eb4        LDX #$b4          ; ..
3eb6: 7f                        .BYTE $7f         ; 
3eb7: 40                        RTI               ;
3eb8: 1e ab 0d                  ASL $0dab,X       ; ...
3ebb: a2 b4                     LDX #$b4          ; ..
3ebd: 81 40                     STA (FREQ,X)      ; .@
3ebf: 1e ab 0d                  ASL $0dab,X       ; ...
3ec2: a2 b4                     LDX #$b4          ; ..
3ec4: 83                        .BYTE $83         ; .
3ec5: 40                        RTI               ;
3ec6: 1e ab 0d                  ASL $0dab,X       ; ...
3ec9: a2 b4                     LDX #$b4          ; ..
3ecb: 85 40                     STA FREQ          ; .@
3ecd: 1e ab 0d                  ASL $0dab,X       ; ...
3ed0: ff                        .BYTE $ff         ; .
3ed1: a6 00                     LDX LINZBS        ; ..
3ed3: 00                        BRK               ; .
3ed4: a5 41                     LDA SOUNDR        ; .A
3ed6: 63 74                     .BYTE $63,$74     ; ct
3ed8: 69 76                     ADC #$76          ; iv
3eda: 65 20                     ADC dat_0020      ; e
3edc: 4d 61 67                  EOR $6761         ; Mag
3edf: 69 63                     ADC #$63          ; ic
3ee1: 0d a3 fc                  ORA $fca3         ; ...
3ee4: 3f                        .BYTE $3f         ; ?
3ee5: ac 15 3f                  LDY loc_3f15      ; ..?
3ee8: ff                        .BYTE $ff         ; .
3ee9: a6 00                     LDX LINZBS        ; ..
3eeb: 00                        BRK               ; .
3eec: a5 4b                     LDA CASSBT        ; .K
3eee: 6e 6f 77                  ROR $776f         ; now
3ef1: 6e 20 44                  ROR loc_4420      ; n D
3ef4: 69 73                     ADC #$73          ; is
3ef6: 65 61                     ADC NEWCOL        ; ea
3ef8: 73                        .BYTE $73         ; s
3ef9: 65 73                     ADC COLAC+1       ; es
3efb: 0d a3 f6                  ORA $f6a3         ; ...
3efe: 3f                        .BYTE $3f         ; ?
3eff: ac 15 3f                  LDY loc_3f15      ; ..?
3f02: ff                        .BYTE $ff         ; .
3f03: a6 00                     LDX LINZBS        ; ..
3f05: 00                        BRK               ; .
3f06: a5 43                     LDA ZBUFP         ; .C
3f08: 75 72                     ADC COLAC,X       ; ur
3f0a: 73                        .BYTE $73         ; s
3f0b: 65 73                     ADC COLAC+1       ; es
3f0d: 0d a3 f9                  ORA $f9a3         ; ...
3f10: 3f                        .BYTE $3f         ; ?
3f11: ac 15 3f                  LDY loc_3f15      ; ..?
3f14: ff                        .BYTE $ff         ; .
3f15: 0d a2 b4  loc_3f15        ORA $b4a2         ; ...
3f18: 7f                        .BYTE $7f         ; 
3f19: 40        loc_3f19        RTI               ;

3f1a: 26 ab                     ROL $ab           ; &.
3f1c: 0d a2 b4                  ORA $b4a2         ; ...
3f1f: 81 40                     STA (FREQ,X)      ; .@
3f21: 26 ab                     ROL $ab           ; &.
3f23: 0d a2 b4                  ORA $b4a2         ; ...
3f26: 83                        .BYTE $83         ; .
3f27: 40                        RTI               ; Return from interrupt handler

3f28: 26 ab                     ROL $ab           ; &.
3f2a: 0d a2 b4                  ORA $b4a2         ; ...
3f2d: 85 40                     STA FREQ          ; .@
3f2f: 26 ab     loc_3f2f        ROL $ab           ; &.
3f31: 0d a2 b4                  ORA $b4a2         ; ...
3f34: 87                        .BYTE $87         ; .
3f35: 40                        RTI               ; Return from interrupt handler

3f36: 26 ab                     ROL $ab           ; &.
3f38: 0d a2 b4                  ORA $b4a2         ; ...
3f3b: 89                        .BYTE $89         ; .
3f3c: 40                        RTI               ; Return from interrupt handler

3f3d: 26 ab                     ROL $ab           ; &.
3f3f: 0d ae a9  loc_3f3f        ORA $a9ae         ; ...
3f42: 6e 8d 7f                  ROR $7f8d         ; n.
3f45: 40                        RTI               ; Return from interrupt handler

3f46: 8d 81 40  xxxx                STA loc_4081      ; ..@
3f49: a9 40                     LDA #$40          ; .@
3f4b: 8d 80 40                  STA loc_4080      ; ..@
3f4e: 8d 82 40                  STA loc_4082      ; ..@
3f51: a2 07                     LDX #$07          ; ..
3f53: a9 40     loc_3f53        LDA #$40          ; .@
3f55: 9d 83 40                  STA loc_4083,X    ; ..@
3f58: ca                        DEX               ; .
3f59: a9 78                     LDA #$78          ; .x
3f5b: 9d 83 40                  STA loc_4083,X    ; ..@
3f5e: ca                        DEX               ; .
3f5f: 10 f2                     BPL loc_3f53      ; ..
3f61: a9 05                     LDA #$05          ; ..
3f63: 8d 7d 40                  STA loc_407d      ; .}@
3f66: ae 7d 40  loc_3f66        LDX loc_407d      ; .}@
3f69: bd 9c 63                  LDA $639c,X       ; ..c
3f6c: 30 19                     BMI loc_3f87      ; 0.
3f6e: 20 74 4b                  JSR sub_4b74      ;  tK
3f71: f0 14                     BEQ loc_3f87      ; ..
3f73: 18        loc_3f73        CLC               ; .
3f74: ad 7d 40                  LDA loc_407d      ; .}@
3f77: 0a                        ASL               ; .
3f78: a8                        TAY               ; .
3f79: a5 41     loc_3f79        LDA SOUNDR        ; .A
3f7b: 69 06                     ADC #$06          ; i.
3f7d: 99 7f 40                  STA loc_407f,Y    ; .@
3f80: a9 00                     LDA #$00          ; ..
3f82: 65 42                     ADC CRITIC        ; eB
3f84: 99 80 40                  STA loc_4080,Y    ; ..@
3f87: ce 7d 40  loc_3f87        DEC loc_407d      ; .}@
3f8a: 10 da                     BPL loc_3f66      ; ..
3f8c: 60                        RTS               ; `
3f8d: a9 60                     LDA #$60          ; .`
3f8f: 8d 7f 40                  STA loc_407f      ; .@
3f92: a9 40                     LDA #$40          ; .@
3f94: 8d 80 40                  STA loc_4080      ; ..@
3f97: a2 05                     LDX #$05          ; ..
3f99: a9 5e     loc_3f99        LDA #$5e          ; .^
3f9b: 9d 81 40                  STA loc_4081,X    ; ..@
3f9e: ca                        DEX               ; .
3f9f: a9 53                     LDA #$53          ; .S
3fa1: 9d 81 40                  STA loc_4081,X    ; ..@
3fa4: ca                        DEX               ; .
3fa5: 10 f2                     BPL loc_3f99      ; ..
3fa7: a0 04                     LDY #$04          ; ..
3fa9: a2 00     loc_3fa9        LDX #$00          ; ..
3fab: bd a2 63  loc_3fab        LDA $63a2,X       ; ..c
3fae: 10 12                     BPL loc_3fc2      ; ..
3fb0: bd a3 63  loc_3fb0        LDA $63a3,X       ; ..c
3fb3: 9d a2 63                  STA $63a2,X       ; ..c
3fb6: e8                        INX               ; .
3fb7: e0 04                     CPX #$04          ; ..
3fb9: 90 f5                     BCC loc_3fb0      ; ..
3fbb: a9 ff                     LDA #$ff          ; ..
3fbd: 8d a5 63                  STA $63a5         ; ..c
3fc0: 30 05                     BMI loc_3fc7      ; 0.
3fc2: e8        loc_3fc2        INX               ; .
3fc3: e0 04                     CPX #$04          ; ..
3fc5: 90 e4                     BCC loc_3fab      ; ..
3fc7: 88        loc_3fc7        DEY               ; .
3fc8: d0 df                     BNE loc_3fa9      ; ..
3fca: a9 03                     LDA #$03          ; ..
3fcc: 8d 7d 40                  STA loc_407d      ; .}@
3fcf: ae 7d 40  loc_3fcf        LDX loc_407d      ; .}@
3fd2: bd a2 63                  LDA $63a2,X       ; ..c
3fd5: 30 19                     BMI loc_3ff0      ; 0.
3fd7: 20 74 4b                  JSR sub_4b74      ;  tK
3fda: f0 14                     BEQ loc_3ff0      ; ..
3fdc: ad 7d 40                  LDA loc_407d      ; .}@
3fdf: 0a                        ASL               ; .
3fe0: aa                        TAX               ; .
3fe1: 18                        CLC               ; .
3fe2: a5 41                     LDA SOUNDR        ; .A
3fe4: 69 06                     ADC #$06          ; i.
3fe6: 9d 7f 40                  STA loc_407f,X    ; .@
3fe9: a5 42                     LDA CRITIC        ; .B
3feb: 69 00                     ADC #$00          ; i.
3fed: 9d 80 40                  STA loc_4080,X    ; ..@
3ff0: ce 7d 40  loc_3ff0        DEC loc_407d      ; .}@
3ff3: 10 da                     BPL loc_3fcf      ; ..
3ff5: 60                        RTS               ; `
3ff6: a9 09                     LDA #$09          ; ..
3ff8: 2c a9 0b                  BIT $0ba9         ; ,..
3ffb: 2c a9 0c                  BIT $0ca9         ; ,..
3ffe: 8d 7e 40                  STA loc_407e      ; .~@
4001: a2 0b                     LDX #$0b          ; ..
4003: a9 5e     loc_4003        LDA #$5e          ; .^
4005: 9d 7f 40                  STA loc_407f,X    ; .@
4008: ca                        DEX               ; .
4009: a9 53                     LDA #$53          ; .S
400b: 9d 7f 40                  STA loc_407f,X    ; .@
400e: ca                        DEX               ; .
400f: 10 f2                     BPL loc_4003      ; ..
4011: a9 00                     LDA #$00          ; ..
4013: 85 3d                     STA dat_003d_L          ; .=
4015: a9 65                     LDA #$65          ; .e
4017: 85 3e                     STA FTYPE         ; .>
4019: a9 00                     LDA #$00          ; ..
401b: 85 49                     STA ERRNO         ; .I
401d: 8d 7d 40                  STA loc_407d      ; .}@
4020: a0 00     loc_4020        LDY #$00          ; ..
4022: b1 3d                     LDA (dat_003d_L),Y      ; .=
4024: c9 e0                     CMP #$e0          ; ..
4026: 90 24                     BCC loc_404c      ; .$
4028: 29 0f                     AND #$0f          ; ).
402a: cd 7e 40                  CMP loc_407e      ; .~@
402d: d0 1d                     BNE loc_404c      ; ..
402f: ad 7d 40                  LDA loc_407d      ; .}@
4032: 0a                        ASL               ; .
4033: aa                        TAX               ; .
4034: a5 3d                     LDA dat_003d_L          ; .=
4036: 69 03                     ADC #$03          ; i.
4038: 9d 7f 40                  STA loc_407f,X    ; .@
403b: a5 3e                     LDA FTYPE         ; .>
403d: 69 00                     ADC #$00          ; i.
403f: 9d 80 40                  STA loc_4080,X    ; ..@
4042: ee 7d 40                  INC loc_407d      ; .}@
4045: ad 7d 40                  LDA loc_407d      ; .}@
4048: c9 06                     CMP #$06          ; ..
404a: f0 13                     BEQ loc_405f      ; ..
404c: a5 3d     loc_404c        LDA dat_003d_L          ; .=
404e: 18                        CLC               ; .
404f: 69 10                     ADC #$10          ; i.
4051: 85 3d                     STA dat_003d_L          ; .=
4053: 90 02                     BCC loc_4057      ; ..
4055: e6 3e                     INC FTYPE         ; .>
4057: e6 49     loc_4057        INC ERRNO         ; .I
4059: a5 49                     LDA ERRNO         ; .I
405b: c9 40                     CMP #$40          ; .@
405d: 90 c1                     BCC loc_4020      ; ..
405f: 60        loc_405f        RTS               ; `
4060: 42                        .BYTE $42         ; B
4061: 69 72                     ADC #$72          ; ir
4063: 74                        .BYTE $74         ; t
4064: 68                        PLA               ; h
4065: 64                        .BYTE $64         ; d
4066: 61 79                     ADC (ROWINC,X)    ; ay
4068: 20 73 75                  JSR $7573         ;  su
406b: 69 74                     ADC #$74          ; it
406d: 00                        BRK               ; .
406e: 42                        .BYTE $42         ; B
406f: 61 72                     ADC (COLAC,X)     ; ar
4071: 65 20                     ADC dat_0020      ; e
4073: 68                        PLA               ; h
4074: 61 6e                     ADC (BITMSK,X)    ; an
4076: 64                        .BYTE $64         ; d
4077: 00                        BRK               ; .
4078: 4e 6f 6e                  LSR $6e6f         ; Non
407b: 65 00                     ADC LINZBS        ; e.
407d: 00        loc_407d        BRK               ; .
407e: 00        loc_407e        BRK               ; .
407f: 00        loc_407f        BRK               ; .
4080: 00        loc_4080        BRK               ; .
4081: 00        loc_4081        BRK               ; .
4082: 00        loc_4082        BRK               ; .
4083: 00        loc_4083        BRK               ; .
4084: 00                        BRK               ; .
4085: 00                        BRK               ; .
4086: 00                        BRK               ; .
4087: 00                        BRK               ; .
4088: 00                        BRK               ; .
4089: 00                        BRK               ; .
408a: 00                        BRK               ; .

408b: 20 5f 4a  sub_408b        JSR loc_4a5f      ;
408e: a6 50                     LDX TEMP          ;
4090: f0 03                     BEQ loc_4095      ;
4092: 4c cd 40                  JMP loc_40cd      ;

4095: ca        loc_4095        DEX               ;
4096: a0 00                     LDY #$00          ;
4098: ad 62 19                  LDA loc_1962      ;
409b: 86 50                     STX TEMP          ;
409d: 8c 62 19                  STY loc_1962      ;
40a0: 8d 3c 41                  STA loc_413c      ;
40a3: 20 fc 41                  JSR loc_41fc      ;
40a6: 20 f2 47  loc_40a6        JSR loc_47f2      ;
40a9: 20 76 41                  JSR loc_4176      ;
40ac: 20 e7 42                  JSR loc_42e7      ;
40af: 20 77 43                  JSR loc_4377      ;
40b2: 20 c6 43                  JSR loc_43c6      ;
40b5: ad 8b 63                  LDA $638b         ;
40b8: f0 05                     BEQ loc_40bf      ;
40ba: ce 56 19                  DEC UNK_BYTE_COUNTER  ;
40bd: a9 ff                     LDA #$ff          ;
40bf: 8d 57 19  loc_40bf        STA loc_1957      ;
40c2: 20 3d 41                  JSR loc_413d      ;
40c5: ce 3c 41                  DEC loc_413c      ;
40c8: 30 03                     BMI loc_40cd      ;
40ca: 4c a6 40                  JMP loc_40a6      ;
40cd: ad 5f 19  loc_40cd        LDA UNK_BYTE_195F ;
40d0: f0 19                     BEQ loc_40eb      ;
40d2: 20 e7 42                  JSR loc_42e7      ;
40d5: 20 c6 43                  JSR loc_43c6      ;
40d8: a9 69                     LDA #$69          ; Set ???
40da: 85 16                     STA addr_0016_L   ;     address
40dc: a9 39                     LDA #$39          ;     to
40de: 85 17                     STA addr_0016_H   ;     $3969 []
40e0: 20 84 1c                  JSR sub_1c84      ;
40e3: 20 2d 3c                  JSR sub_3c2d      ;
40e6: a9 00                     LDA #$00          ;
40e8: 8d 5f 19                  STA UNK_BYTE_195F ;
40eb: ad 45 63  loc_40eb        LDA CHR_HP_CURRENT_HI  ;
40ee: 0d 46 63                  ORA CHR_HP_CURRENT_LO  ;
40f1: d0 48                     BNE loc_413b      ;
40f3: a9 ff                     LDA #$ff          ;
40f5: a2 03                     LDX #$03          ;
40f7: 9d 45 63  loc_40f7        STA CHR_HP_CURRENT_HI,X  ;
40fa: ca                        DEX               ;
40fb: 10 fa                     BPL loc_40f7      ;
40fd: a9 00                     LDA #$00          ;
40ff: 8d 2f 02                  STA SDMCTL        ;
4102: a2 03                     LDX #$03          ;
4104: 9d 00 d0  loc_4104        STA HPOSP0,X      ;
4107: ca                        DEX               ;
4108: 10 fa                     BPL loc_4104      ;
410a: a9 01                     LDA #$01          ;
410c: 20 0d 1a                  JSR DISPLAY_SUB_1a0d ;
410f: a9 69                     LDA #$69          ; Set ???
4111: 85 16                     STA addr_0016_L   ;     address
4113: a9 39                     LDA #$39          ;     to
4115: 85 17                     STA addr_0016_H   ;     $3969 []
4117: 20 84 1c                  JSR sub_1c84      ;
411a: c6 32                     DEC dat_0032_L    ;
411c: c6 0f                     DEC APPMHI+1      ;
411e: a9 f0                     LDA #$f0          ;
4120: 20 66 2c  loc_4120        JSR WAIT_FOR_VBLK_B  ;
4123: ca                        DEX               ;
4124: d0 fa                     BNE loc_4120      ;
4126: a9 35                     LDA #$35          ;
4128: 8d 09 19                  STA dat_1909      ;
412b: a9 00                     LDA #$00          ; Set
412d: 8d 0b 19                  STA dat_190b_L    ;     ??
4130: a9 76                     LDA #$76          ;     address
4132: 8d 0c 19                  STA dat_190c_H    ;     to $7600
4135: 20 ad 2c                  JSR sub_2cad      ;
4138: 4c 00 76                  JMP $7600         ;

413b: 60        loc_413b        RTS               ;

413c: 00        loc_413c        BRK               ;

413d: ad 00 76  loc_413d        LDA $7600         ;
4140: d0 2f                     BNE loc_4171      ;
4142: 24 32                     BIT dat_0032_L    ;
4144: 30 2b                     BMI loc_4171      ;
4146: ad 82 63                  LDA $6382         ;
4149: ae 73 19                  LDX loc_1973      ;
414c: 38                        SEC               ;
414d: e9 80                     SBC #$80          ;
414f: 18                        CLC               ;
4150: 30 09                     BMI loc_415b      ;
4152: 7d 72 41                  ADC loc_4172,X    ;
4155: 90 0b                     BCC loc_4162      ;
4157: a9 ff                     LDA #$ff          ;
4159: 30 07                     BMI loc_4162      ;
415b: 7d 72 41  loc_415b        ADC loc_4172,X    ;
415e: b0 02                     BCS loc_4162      ;
4160: a9 00                     LDA #$00          ;
4162: 8d 69 41  loc_4162        STA loc_4169      ;
4165: ad 0a d2                  LDA RANDOM        ;
4168: c9 ff                     CMP #$ff          ;
416a: f0 02                     BEQ loc_416e      ;
416c: b0 03                     BCS loc_4171      ;
416e: ce 5d 19  loc_416e        DEC UNK_BYTE_195D ;
4171: 60        loc_4171        RTS               ; Return to caller

4172: 0c        loc_4172        .BYTE $0c         ; .
4173: 10 18                     BPL loc_418d      ; ..
4175: 20 ce 90                  JSR $90ce         ;  ..
4178: 45 d0                     EOR $d0           ; E.
417a: 0c                        .BYTE $0c         ; .

417b: a9 21                     LDA #$21          ;
417d: 8d 90 45                  STA loc_4590      ;
4180: a2 99                     LDX #$99          ;
4182: a9 01                     LDA #$01          ;
4184: 20 69 2e                  JSR sub_2e69      ;
4187: ce 91 45                  DEC loc_4591      ;
418a: d0 0c                     BNE loc_4198      ;
418c: a9 16                     LDA #$16          ;
418e: 8d 91 45                  STA loc_4591      ;
4191: a2 9a                     LDX #$9a          ;
4193: a9 01                     LDA #$01          ;
4195: 20 69 2e                  JSR sub_2e69      ;
4198: ce 92 45  loc_4198        DEC loc_4592      ;
419b: d0 11                     BNE loc_41ae      ;
419d: a9 0e                     LDA #$0e          ;
419f: 8d 92 45                  STA loc_4592      ;
41a2: 2c 72 19                  BIT loc_1972      ;
41a5: 30 07                     BMI loc_41ae      ;
41a7: a2 9b                     LDX #$9b          ;
41a9: a9 01                     LDA #$01          ;
41ab: 20 69 2e                  JSR sub_2e69      ;
41ae: ce 93 45  loc_41ae        DEC loc_4593      ;
41b1: d0 2b                     BNE loc_41de      ;
41b3: a9 01                     LDA #$01          ;
41b5: 8d 93 45                  STA loc_4593      ;
41b8: ad 96 63                  LDA $6396         ;
41bb: f0 0d                     BEQ loc_41ca      ;
41bd: ce 96 63                  DEC $6396         ;
41c0: a2 97                     LDX #$97          ;
41c2: a9 01                     LDA #$01          ;
41c4: 20 43 2e                  JSR loc_2e43      ;
41c7: 4c de 41                  JMP loc_41de      ;
41ca: ad d3 41  loc_41ca        LDA loc_41d3      ;
41cd: 49 ff                     EOR #$ff          ;
41cf: 8d d3 41                  STA loc_41d3      ;
41d2: a9 ff                     LDA #$ff          ;
41d4: 30 08                     BMI loc_41de      ;
41d6: ad 97 63                  LDA CHR_DRUNK     ;
41d9: f0 03                     BEQ loc_41de      ;
41db: ce 97 63                  DEC CHR_DRUNK     ;
41de: ce 94 45  loc_41de        DEC loc_4594      ;
41e1: d0 0c                     BNE loc_41ef      ;
41e3: a9 02                     LDA #$02          ;
41e5: 8d 94 45                  STA loc_4594      ;
41e8: a2 98                     LDX #$98          ;
41ea: a9 01                     LDA #$01          ;
41ec: 20 69 2e                  JSR sub_2e69      ;
41ef: 60        loc_41ef        RTS               ; Return to caller

41f0: 04 04 04 03 03  loc_41f0  .BYTE $04,$04,$04,$03,$03  ; .....
41f5: 01 00     loc_41f5        ORA (LINZBS,X)    ; ..
41f7: 00                        BRK               ; .
41f8: 03 03 02 02               .BYTE $03,$03,$02,$02  ; ....

41fc: ad 60 19  loc_41fc        LDA UNK_BYTE_1960    ;
41ff: d0 01                     BNE loc_4202         ;
4201: 60                        RTS                  ;

4202: a9 00     loc_4202        LDA #$00             ;
4204: 8d 60 19                  STA UNK_BYTE_1960    ;
4207: 8d 76 19                  STA dat_1976         ;
420a: 8d 5e 19                  STA dat_195e         ;
420d: 8d 94 63                  STA CHR_BURDEN       ;
4210: 8d e5 42                  STA dat_42e5         ;
4213: 8d e6 42                  STA dat_42e6         ;
4216: a9 03                     LDA #$03             ;
4218: 85 5c                     STA OLDCOL+1         ;
421a: a6 5c     loc_421a        LDX OLDCOL+1         ;
421c: bd a2 63                  LDA $63a2,X          ;
421f: 30 1c                     BMI loc_423d         ;
4221: 85 4b                     STA CASSBT           ;
4223: 20 74 4b                  JSR sub_4b74         ;
4226: 20 c4 4e                  JSR sub_4ec4         ;
4229: a0 00                     LDY #$00             ;
422b: ad 76 19                  LDA dat_1976         ;
422e: 71 43                     ADC (ZBUFP),Y        ;
4230: 8d 76 19                  STA dat_1976         ;
4233: c8                        INY                  ;
4234: ad 5e 19                  LDA dat_195e         ;
4237: 18                        CLC                  ;
4238: 71 43                     ADC (ZBUFP),Y        ;
423a: 8d 5e 19                  STA dat_195e         ;
423d: c6 5c     loc_423d        DEC OLDCOL+1         ;
423f: 10 d9                     BPL loc_421a         ;
4241: ad 5e 19                  LDA dat_195e         ;
4244: 18                        CLC                  ;
4245: 6d 53 19                  ADC ZONE_I_BYTE      ;
4248: 8d 95 63                  STA CHR_TEMPER       ;
424b: a9 3f                     LDA #$3f             ;
424d: 85 4b                     STA CASSBT           ;
424f: a5 4b     loc_424f        LDA CASSBT           ;
4251: 20 74 4b                  JSR sub_4b74         ;
4254: f0 19                     BEQ loc_426f         ;
4256: a0 00                     LDY #$00             ;
4258: b1 41                     LDA (SOUNDR),Y       ;
425a: 10 13                     BPL loc_426f         ;
425c: a0 04                     LDY #$04             ;
425e: b1 41                     LDA (SOUNDR),Y       ;
4260: 18                        CLC                  ;
4261: 6d e5 42                  ADC dat_42e5         ;
4264: 8d e5 42                  STA dat_42e5         ;
4267: ad e6 42                  LDA dat_42e6         ;
426a: 69 00                     ADC #$00             ;
426c: 8d e6 42                  STA dat_42e6         ;
426f: c6 4b     loc_426f        DEC CASSBT           ;
4271: 10 dc                     BPL loc_424f         ;
4273: a2 04                     LDX #$04             ;
4275: 8a        loc_4275        TXA                  ;
4276: 0a                        ASL                  ;
4277: a8                        TAY                  ;
4278: b9 b1 63                  LDA INV_GOLD_U16_HI,Y  ;
427b: 85 58                     STA SAVMSC           ;
427d: b9 b2 63                  LDA INV_GOLD,Y       ;
4280: bc f0 41                  LDY loc_41f0,X       ;
4283: f0 06     loc_4283        BEQ loc_428b         ;
4285: 46 58                     LSR SAVMSC           ;
4287: 6a                        ROR                  ;
4288: 88                        DEY                  ;
4289: 10 f8                     BPL loc_4283         ;
428b: 18        loc_428b        CLC                  ;
428c: 6d e5 42                  ADC dat_42e5         ;
428f: 8d e5 42                  STA dat_42e5         ;
4292: ad e6 42                  LDA dat_42e6         ;
4295: 69 00                     ADC #$00             ;
4297: 8d e6 42                  STA dat_42e6         ;
429a: ca                        DEX                  ;
429b: 10 d8                     BPL loc_4275         ;
429d: a2 06                     LDX #$06             ;
429f: bd bb 63  loc_429f        LDA INV_FOOD,X       ;
42a2: bc f5 41                  LDY loc_41f5,X       ;
42a5: f0 04     loc_42a5        BEQ loc_42ab         ;
42a7: 4a                        LSR                  ;
42a8: 88                        DEY                  ;
42a9: 10 fa                     BPL loc_42a5         ;
42ab: 18        loc_42ab        CLC                  ;
42ac: 6d e5 42                  ADC dat_42e5         ;
42af: 8d e5 42                  STA dat_42e5         ;
42b2: ad e6 42                  LDA dat_42e6         ;
42b5: 69 00                     ADC #$00             ;
42b7: 8d e6 42                  STA dat_42e6         ;
42ba: ca                        DEX                  ;
42bb: 10 e2                     BPL loc_429f         ;
42bd: ad 59 63                  LDA CHR_STR_EFFECTIVE  ;
42c0: 4a                        LSR                  ;
42c1: 8d c9 42                  STA loc_42c9         ;
42c4: ad e5 42                  LDA dat_42e5         ;
42c7: 38                        SEC                  ;
42c8: e9 ff                     SBC #$ff             ;
42ca: 8d e5 42                  STA dat_42e5         ;
42cd: ad e6 42                  LDA dat_42e6         ;
42d0: e9 00                     SBC #$00             ;
42d2: 8d e6 42                  STA dat_42e6         ;
42d5: 90 0d                     BCC loc_42e4         ;
42d7: f0 05                     BEQ loc_42de         ;
42d9: a9 ff                     LDA #$ff             ;
42db: 8d e5 42                  STA dat_42e5         ;
42de: ad e5 42  loc_42de        LDA dat_42e5         ;
42e1: 8d 94 63                  STA CHR_BURDEN       ;
42e4: 60        loc_42e4        RTS                  ; Return to caller

42e5: ff        dat_42e5        .BYTE $ff         ; .
42e6: ff        dat_42e6        .BYTE $ff         ; .

42e7: a9 e5     loc_42e7        LDA #$e5          ; ..
42e9: 8d b1 45                  STA loc_45b1      ; ..E
42ec: 8d b3 45                  STA loc_45b3      ; ..E
42ef: 8d b5 45                  STA loc_45b5      ; ..E
42f2: a9 47                     LDA #$47          ; .G
42f4: 8d b2 45                  STA loc_45b2      ; ..E
42f7: 8d b4 45                  STA loc_45b4      ; ..E
42fa: 8d b6 45                  STA loc_45b6      ; ..E
42fd: 2c 91 63                  BIT CHR_DISEASE   ; ,.c
4300: 10 0a                     BPL loc_430c      ; ..
4302: a9 cb                     LDA #$cb          ; ..
4304: 8d b1 45                  STA loc_45b1      ; ..E
4307: a9 47                     LDA #$47          ; .G
4309: 8d b2 45                  STA loc_45b2      ; ..E
430c: 2c 92 63  loc_430c        BIT CHR_POISON    ; ,.c
430f: 10 0a                     BPL loc_431b      ; ..
4311: a9 be                     LDA #$be          ; ..
4313: 8d b3 45                  STA loc_45b3      ; ..E
4316: a9 47                     LDA #$47          ; .G
4318: 8d b4 45                  STA loc_45b4      ; ..E
431b: 2c 93 63  loc_431b        BIT CHR_CURSE     ; ,.c
431e: 10 0a                     BPL loc_432a      ; ..
4320: a9 d8     loc_4320        LDA #$d8          ; ..
4322: 8d b5 45                  STA loc_45b5      ; ..E
4325: a9 47                     LDA #$47          ; .G
4327: 8d b6 45                  STA loc_45b6      ; ..E
432a: a2 06     loc_432a        LDX #$06          ; ..
432c: 86 5c                     STX OLDCOL+1      ; .\
432e: bd e0 45  loc_432e        LDA loc_45e0,X    ; ..E
4331: 85 58                     STA SAVMSC        ; .X
4333: bd e7 45                  LDA loc_45e7,X    ; ..E
4336: 85 59                     STA SAVMSC+1      ; .Y
4338: bd ee 45                  LDA loc_45ee,X    ; ..E
433b: 85 5a                     STA OLDROW        ; .Z
433d: bd f5 45                  LDA loc_45f5,X    ; ..E
4340: 85 5b                     STA OLDCOL        ; .[
4342: bd d9 45                  LDA loc_45d9,X    ; ..E
4345: a8                        TAY               ; .
4346: b9 00 63                  LDA $6300,Y       ; ..c
4349: a0 00                     LDY #$00          ; ..
434b: d1 58     loc_434b        CMP (SAVMSC),Y    ; .X
434d: 90 05                     BCC loc_4354      ; ..
434f: f0 03                     BEQ loc_4354      ; ..
4351: c8                        INY               ; .
4352: d0 f7                     BNE loc_434b      ; ..
4354: 98        loc_4354        TYA               ; .
4355: dd 63 19                  CMP loc_1963,X    ; .c.
4358: f0 06                     BEQ loc_4360      ; ..
435a: ce 5f 19                  DEC UNK_BYTE_195F  ; ._.
435d: 9d 63 19                  STA loc_1963,X    ; .c.
4360: 0a        loc_4360        ASL               ; .
4361: a8                        TAY               ; .
4362: 8a                        TXA               ; .
4363: 0a                        ASL               ; .
4364: aa                        TAX               ; .
4365: b1 5a                     LDA (OLDROW),Y    ; .Z
4367: 9d a3 45                  STA loc_45a3,X    ; ..E
436a: c8                        INY               ; .
436b: b1 5a                     LDA (OLDROW),Y    ; .Z
436d: 9d a4 45                  STA loc_45a4,X    ; ..E
4370: c6 5c                     DEC OLDCOL+1      ; .\
4372: a6 5c                     LDX OLDCOL+1      ; .\
4374: 10 b8                     BPL loc_432e      ; ..
4376: 60                        RTS               ; `
4377: ad 9b 63  loc_4377        LDA CHR_ENERGY    ; ..c
437a: 8d c5 43                  STA loc_43c5      ; ..C
437d: a2 06                     LDX #$06          ; ..
437f: 86 5c                     STX OLDCOL+1      ; .\
4381: de 95 45  loc_4381        DEC loc_4595,X    ; ..E
4384: d0 2d                     BNE loc_43b3      ; .-
4386: bd 9c 45                  LDA loc_459c,X    ; ..E
4389: 9d 95 45                  STA loc_4595,X    ; ..E
438c: bd fc 45                  LDA loc_45fc,X    ; ..E
438f: 85 58                     STA SAVMSC        ; .X
4391: bd 03 46                  LDA loc_4603,X    ; ..F
4394: 85 59                     STA SAVMSC+1      ; .Y
4396: bc 63 19                  LDY loc_1963,X    ; .c.
4399: b1 58                     LDA (SAVMSC),Y    ; .X
439b: f0 16                     BEQ loc_43b3      ; ..
439d: 0a                        ASL               ; .
439e: a8                        TAY               ; .
439f: b9 b5 45                  LDA loc_45b5,Y    ; ..E
43a2: 8d b1 43                  STA loc_43b1      ; ..C
43a5: b9 b6 45                  LDA loc_45b6,Y    ; ..E
43a8: 8d b2 43                  STA loc_43b2      ; ..C
43ab: a9 ff                     LDA #$ff          ; ..
43ad: 8d 5f 19                  STA UNK_BYTE_195F  ; ._.
43b0: 20 ff ff                  JSR $ffff         ;  ..
43b3: c6 5c     loc_43b3        DEC OLDCOL+1      ; .\
43b5: a6 5c                     LDX OLDCOL+1      ; .\
43b7: 10 c8                     BPL loc_4381      ; ..
43b9: 2c 72 19                  BIT loc_1972      ; ,r.
43bc: 10 06                     BPL loc_43c4      ; ..
43be: ad c5 43                  LDA loc_43c5      ; ..C
43c1: 8d 9b 63                  STA CHR_ENERGY    ; ..c
43c4: 60        loc_43c4        RTS               ; `
43c5: 00        loc_43c5        BRK               ; .
43c6: ad 46 63  loc_43c6        LDA CHR_HP_CURRENT_LO  ; .Fc
43c9: cd 48 63                  CMP CHR_HP_MAX_LO  ; .Hc
43cc: ad 45 63                  LDA CHR_HP_CURRENT_HI  ; .Ec
43cf: ed 47 63  PROCESS_HOURLY_UPDATES  SBC CHR_HP_MAX_HI  ; .Gc
43d2: 90 0e                     BCC HP_NOT_MAX_43E2  ; ..
43d4: a2 01                     LDX #$01          ; ..
43d6: bd 47 63  HP_LOOP         LDA CHR_HP_MAX_HI,X  ; .Gc
43d9: 9d 45 63                  STA CHR_HP_CURRENT_HI,X  ; .Ec
43dc: ca                        DEX               ;
43dd: 10 f7                     BPL HP_LOOP       ;
43df: a9 3d                     LDA #$3d          ;
43e1: 2c a9 3a                  BIT loc_3aa9      ;
43e4: 8d 99 04                  STA DISP_HP_SEP_CHAR ;
43e7: a9 49                     LDA #$49          ; Set ???
43e9: 85 58                     STA SAVMSC        ;     address
43eb: a9 63                     LDA #$63          ;     to
43ed: 85 59                     STA SAVMSC+1      ;     $6349 []
43ef: a2 06                     LDX #$06          ;
43f1: a0 01     STAT_LOOP       LDY #$01          ;
43f3: b1 58                     LDA (SAVMSC),Y    ;
43f5: 18                        CLC               ;
43f6: a0 02                     LDY #$02          ; ..
43f8: 71 58                     ADC (SAVMSC),Y    ; qX
43fa: 90 02                     BCC loc_43fe      ; ..
43fc: a9 ff                     LDA #$ff          ; ..
43fe: 38        loc_43fe        SEC               ; 8
43ff: c8                        INY               ; .
4400: f1 58                     SBC (SAVMSC),Y    ; .X
4402: b0 02                     BCS loc_4406      ; ..
4404: a9 00                     LDA #$00          ; ..
4406: c8        loc_4406        INY               ; .
4407: 38                        SEC               ; 8
4408: f1 58                     SBC (SAVMSC),Y    ; .X
440a: b0 02                     BCS loc_440e      ; ..
440c: a9 00                     LDA #$00          ; ..
440e: c8        loc_440e        INY               ; .
440f: 38                        SEC               ; 8
4410: f1 58                     SBC (SAVMSC),Y    ; .X
4412: b0 02                     BCS loc_4416      ; ..
4414: a9 00                     LDA #$00          ; ..
4416: c8        loc_4416        INY               ; .
4417: 38                        SEC               ; 8
4418: f1 58                     SBC (SAVMSC),Y    ; .X
441a: b0 02                     BCS loc_441e      ; ..
441c: a9 00                     LDA #$00          ; ..
441e: a0 00     loc_441e        LDY #$00          ; ..
4420: 91 58     loc_4420        STA (SAVMSC),Y    ; .X
4422: a9 08                     LDA #$08          ; ..
4424: 18                        CLC               ; .
4425: 65 58                     ADC SAVMSC        ; eX
4427: 85 58                     STA SAVMSC        ; .X
4429: 90 02                     BCC loc_442d      ; ..
442b: e6 59                     INC SAVMSC+1      ; .Y
442d: ca        loc_442d        DEX               ; .
442e: 10 c1                     BPL STAT_LOOP     ; ..
4430: ad 79 63                  LDA CHR_SPD_EFFECTIVE  ; .yc
4433: 4a                        LSR               ; J
4434: 4a                        LSR               ; J
4435: 4a                        LSR               ; J
4436: 4a                        LSR               ; J
4437: aa                        TAX               ; .
4438: bd 5f 44                  LDA MOVEMENT_SPEED_TBL,X  ; ._D
443b: 8d 83 63                  STA CHR_MOVE_SPEED  ; ..c
443e: 2c 98 63                  BIT CHR_STOMACH   ; ,.c
4441: 10 03                     BPL loc_4446      ; ..
4443: 4e 83 63                  LSR CHR_MOVE_SPEED  ; N.c
4446: ad 83 63  loc_4446        LDA CHR_MOVE_SPEED  ; ..c
4449: c9 04                     CMP #$04          ; ..
444b: b0 05                     BCS loc_4452      ; ..
444d: a9 04                     LDA #$04          ; ..
444f: 8d 83 63                  STA CHR_MOVE_SPEED  ; ..c
4452: ad 94 63  loc_4452        LDA CHR_BURDEN    ; ..c
4455: c9 e0                     CMP #$e0          ; ..
4457: 90 05                     BCC loc_445e      ; ..
4459: a9 02                     LDA #$02          ; ..
445b: 8d 83 63                  STA CHR_MOVE_SPEED  ; ..c
445e: 60        loc_445e        RTS               ; `
445f: 06 07 08 09 0a 0b 0c 0d  MOVEMENT_SPEED_TBL  .BYTE $06,$07,$08,$09,$0a,$0b,$0c,$0d  ; ........
4467: 0e 0f 10 11 11 11 12 12   .BYTE $0e,$0f,$10,$11,$11,$11,$12,$12  ; ........
446f: ad 0a d2  loc_446f        LDA RANDOM        ; ...
4472: 8d 7a 44                  STA loc_447a      ; .zD
4475: ad 49 63                  LDA CHR_STA_EFFECTIVE  ; .Ic
4478: 4a                        LSR               ; J
4479: c9 ff                     CMP #$ff          ; ..
447b: b0 01                     BCS loc_447e      ; ..
447d: 60                        RTS               ; `
447e: 68        loc_447e        PLA               ; h
447f: 68                        PLA               ; h
4480: 60                        RTS               ; `
4481: a2 9b                     LDX #$9b          ; ..
4483: a9 01                     LDA #$01          ; ..
4485: 20 69 2e                  JSR sub_2e69      ;  i.
4488: a2 99                     LDX #$99          ; ..
448a: a9 01                     LDA #$01          ; ..
448c: 4c 69 2e                  JMP sub_2e69      ; Li.
448f: a2 9b                     LDX #$9b          ; ..
4491: a9 01                     LDA #$01          ; ..
4493: 20 69 2e                  JSR sub_2e69      ;  i.
4496: a2 9a                     LDX #$9a          ; ..
4498: a9 01                     LDA #$01          ; ..
449a: 4c 69 2e                  JMP sub_2e69      ; Li.
449d: 20 6f 44                  JSR loc_446f      ;  oD
44a0: a2 5d                     LDX #$5d          ; .]
44a2: a9 01                     LDA #$01          ; ..
44a4: 20 43 2e                  JSR loc_2e43      ;  C.
44a7: a2 7d                     LDX #$7d          ; .}
44a9: a9 01                     LDA #$01          ; ..
44ab: 4c 43 2e                  JMP loc_2e43      ; LC.
44ae: 20 6f 44                  JSR loc_446f      ;  oD
44b1: a2 45                     LDX #$45          ; .E
44b3: a9 01                     LDA #$01          ; ..
44b5: 20 66 2e                  JSR sub_2e66      ;  f.
44b8: a2 5d                     LDX #$5d          ; .]
44ba: a9 01                     LDA #$01          ; ..
44bc: 20 43 2e                  JSR loc_2e43      ;  C.
44bf: a2 75                     LDX #$75          ; .u
44c1: a9 01                     LDA #$01          ; ..
44c3: 20 43 2e                  JSR loc_2e43      ;  C.
44c6: a2 7d                     LDX #$7d          ; .}
44c8: a9 01                     LDA #$01          ; ..
44ca: 20 43 2e                  JSR loc_2e43      ;  C.
44cd: a2 9b                     LDX #$9b          ; ..
44cf: a9 01                     LDA #$01          ; ..
44d1: 4c 69 2e                  JMP sub_2e69      ; Li.
44d4: a2 5d                     LDX #$5d          ; .]
44d6: a9 01                     LDA #$01          ; ..
44d8: 20 69 2e                  JSR sub_2e69      ;  i.
44db: a2 75                     LDX #$75          ; .u
44dd: a9 01                     LDA #$01          ; ..
44df: 20 69 2e                  JSR sub_2e69      ;  i.
44e2: a2 7d                     LDX #$7d          ; .}
44e4: a9 01                     LDA #$01          ; ..
44e6: 4c 69 2e                  JMP sub_2e69      ; Li.
44e9: 20 6f 44                  JSR loc_446f      ;  oD
44ec: a2 5e                     LDX #$5e          ; .^
44ee: a9 01                     LDA #$01          ; ..
44f0: 20 43 2e                  JSR loc_2e43      ;  C.
44f3: a2 7e                     LDX #$7e          ; .~
44f5: a9 01                     LDA #$01          ; ..
44f7: 4c 43 2e                  JMP loc_2e43      ; LC.
44fa: 20 6f 44                  JSR loc_446f      ;  oD
44fd: a2 45                     LDX #$45          ; .E
44ff: a9 01                     LDA #$01          ; ..
4501: 20 66 2e                  JSR sub_2e66      ;  f.
4504: a2 5e                     LDX #$5e          ; .^
4506: a9 01                     LDA #$01          ; ..
4508: 20 43 2e                  JSR loc_2e43      ;  C.
450b: a2 7e                     LDX #$7e          ; .~
450d: a9 01                     LDA #$01          ; ..
450f: 20 43 2e                  JSR loc_2e43      ;  C.
4512: a2 9b                     LDX #$9b          ; ..
4514: a9 01                     LDA #$01          ; ..
4516: 4c 69 2e                  JMP sub_2e69      ; Li.
4519: a2 5e                     LDX #$5e          ; .^
451b: a9 01                     LDA #$01          ; ..
451d: 20 69 2e                  JSR sub_2e69      ;  i.
4520: a2 7e     loc_4520        LDX #$7e          ; .~
4522: a9 01                     LDA #$01          ; ..
4524: 4c 69 2e                  JMP sub_2e69      ; Li.
4527: 20 6f 44                  JSR loc_446f      ;  oD
452a: ad 72 19                  LDA loc_1972      ; .r.
452d: 10 01                     BPL loc_4530      ; ..
452f: 60                        RTS               ; `
4530: a2 7f     loc_4530        LDX #$7f          ; .
4532: a9 01                     LDA #$01          ; ..
4534: 20 43 2e                  JSR loc_2e43      ;  C.
4537: a2 5f                     LDX #$5f          ; ._
4539: a9 01                     LDA #$01          ; ..
453b: 4c 43 2e                  JMP loc_2e43      ; LC.
453e: 20 6f 44                  JSR loc_446f      ;  oD
4541: 2c 72 19                  BIT loc_1972      ; ,r.
4544: 10 01                     BPL loc_4547      ; ..
4546: 60                        RTS               ; `
4547: a2 45     loc_4547        LDX #$45          ; .E
4549: a9 01                     LDA #$01          ; ..
454b: 20 66 2e                  JSR sub_2e66      ;  f.
454e: a2 7f                     LDX #$7f          ; .
4550: a9 01                     LDA #$01          ; ..
4552: 20 43 2e                  JSR loc_2e43      ;  C.
4555: a2 5f                     LDX #$5f          ; ._
4557: a9 01                     LDA #$01          ; ..
4559: 20 43 2e                  JSR loc_2e43      ;  C.
455c: a2 77                     LDX #$77          ; .w
455e: a9 01                     LDA #$01          ; ..
4560: 4c 43 2e                  JMP loc_2e43      ; LC.
4563: a2 7f                     LDX #$7f          ; .
4565: a9 01                     LDA #$01          ; ..
4567: 20 69 2e                  JSR sub_2e69      ;  i.
456a: a2 5f                     LDX #$5f          ; ._
456c: a9 01                     LDA #$01          ; ..
456e: 20 69 2e                  JSR sub_2e69      ;  i.
4571: a2 77                     LDX #$77          ; .w
4573: a9 01                     LDA #$01          ; ..
4575: 4c 69 2e                  JMP sub_2e69      ; Li.
4578: 20 6f 44                  JSR loc_446f      ;  oD
457b: a2 9b                     LDX #$9b          ; ..
457d: a9 01                     LDA #$01          ; ..
457f: 4c 69 2e                  JMP sub_2e69      ; Li.
4582: 20 6f 44                  JSR loc_446f      ;  oD
4585: a2 9b                     LDX #$9b          ; ..
4587: a9 01                     LDA #$01          ; ..
4589: 4c 69 2e                  JMP sub_2e69      ; Li.
458c: 60                        RTS               ; `
458d: 60                        RTS               ; `
458e: 60                        RTS               ; `
458f: 60                        RTS               ; `
4590: 21 16     loc_4590        AND (addr_0016_L,X)  ; !.
4592: 0e 04 03  loc_4592        ASL D32_382_ENCH  ; ...
4595: 04        loc_4595        .BYTE $04         ; .
4596: 21 16                     AND (addr_0016_L,X)  ; !.
4598: 0e 03 02                  ASL VPRCED+1      ; ...
459b: 02                        .BYTE $02         ; .
459c: 04        loc_459c        .BYTE $04         ; .
459d: 21 16                     AND (addr_0016_L,X)  ; !.
459f: 0e 03 02                  ASL VPRCED+1      ; ...
45a2: 02                        .BYTE $02         ; .
45a3: e5 47     loc_45a3        SBC ZSBA          ; .G
45a5: e5 47                     SBC ZSBA          ; .G
45a7: e5 47                     SBC ZSBA          ; .G
45a9: e5 47                     SBC ZSBA          ; .G
45ab: e5 47                     SBC ZSBA          ; .G
45ad: e5 47                     SBC ZSBA          ; .G
45af: e5 47                     SBC ZSBA          ; .G
45b1: e5 47     loc_45b1        SBC ZSBA          ; .G
45b3: e5 47     loc_45b3        SBC ZSBA          ; .G
45b5: e5 47     loc_45b5        SBC ZSBA          ; .G
45b7: 81 44                     STA (ZBUFP+1,X)   ; .D
45b9: 8f 44                     .BYTE $8f,$44     ; .D
45bb: 9d 44 ae                  STA $ae44,X       ; .D.
45be: 44                        .BYTE $44         ; D
45bf: e9 44                     SBC #$44          ; .D
45c1: fa 44 27                  .BYTE $fa,$44,$27  ; .D'
45c4: 45 3e                     EOR FTYPE         ; E>
45c6: 45 78                     EOR DELTAC+1      ; Ex
45c8: 45 82                     EOR VNTP          ; E.
45ca: 45 8c                     EOR STARP         ; E.
45cc: 45 8d                     EOR STARP+1       ; E.
45ce: 45 8e                     EOR RUNSTK        ; E.
45d0: 45 8f                     EOR RUNSTK+1      ; E.
45d2: 45 d4                     EOR FR0           ; E.
45d4: 44                        .BYTE $44         ; D
45d5: 19 45 63                  ORA CHR_HP_CURRENT_HI,Y  ; .Ec
45d8: 45 95                     EOR $95           ; E.
45da: 99 9a 9b                  STA $9b9a,Y       ; ...
45dd: 94 97                     STY $97,X         ; ..
45df: 98                        TYA               ; .
45e0: 0a        loc_45e0        ASL               ; .
45e1: 26 36                     ROL CRETRY        ; &6
45e3: 46 56                     LSR COLCRS+1      ; FV
45e5: 66 76                     ROR DELTAR        ; fv
45e7: 46 46     loc_45e7        LSR ZDRVA+1       ; FF
45e9: 46 46                     LSR ZDRVA+1       ; FF
45eb: 46 46                     LSR ZDRVA+1       ; FF
45ed: 46 18                     LSR sub_add_0018_L      ; F.
45ef: 2e 3e 4e                  ROL loc_4e3e      ; .>N
45f2: 5e 6e 7e                  LSR $7e6e,X       ; ^n~
45f5: 46 46     loc_45f5        LSR ZDRVA+1       ; FF
45f7: 46 46                     LSR ZDRVA+1       ; FF
45f9: 46 46                     LSR ZDRVA+1       ; FF
45fb: 46 11                     LSR BRKKEY        ; F.
45fd: 2a                        ROL               ; *
45fe: 3a                        .BYTE $3a         ; :
45ff: 4a                        LSR               ; J
4600: 5a        loc_4600        .BYTE $5a         ; Z
4601: 6a                        ROR               ; j
4602: 7a                        .BYTE $7a         ; z
4603: 46 46     loc_4603        LSR ZDRVA+1       ; FF
4605: 46 46                     LSR ZDRVA+1       ; FF
4607: 46 46                     LSR ZDRVA+1       ; FF
4609: 46 20                     LSR dat_0020      ; F
460b: 40                        RTI               ; Return from interrupt handler

460c: 60                        RTS               ; `
460d: a0 c0                     LDY #$c0          ; ..
460f: e0 ff                     CPX #$ff          ; ..
4611: 01 00                     ORA (LINZBS,X)    ; ..
4613: 00                        BRK               ; .
4614: 00                        BRK               ; .
4615: 00                        BRK               ; .
4616: 00                        BRK               ; .
4617: 02                        .BYTE $02         ; .
4618: 86 46                     STX ZDRVA+1       ; .F
461a: 93                        .BYTE $93         ; .
461b: 46 a0                     LSR $a0           ; F.
461d: 46 e5                     LSR FR1+5         ; F.
461f: 47                        .BYTE $47         ; G
4620: ad 46 ba                  LDA $ba46         ; .F.
4623: 46 c7                     LSR $c7           ; F.
4625: 46 30                     LSR STATUS        ; F0
4627: 80                        .BYTE $80         ; .
4628: ec ff 04                  CPX $04ff         ; ...
462b: 03                        .BYTE $03         ; .
462c: 00                        BRK               ; .
462d: 0f                        .BYTE $0f         ; .
462e: ee 46 e1                  INC $e146         ; .F.
4631: 46 d4                     LSR FR0           ; F.
4633: 46 e5                     LSR FR1+5         ; F.
4635: 47                        .BYTE $47         ; G
4636: 40                        RTI               ; Return from interrupt handler

4637: 80                        .BYTE $80         ; .
4638: d0 ff                     BNE loc_4639      ; ..
463a: 06 05                     ASL dat_0005      ; ..
463c: 00                        BRK               ; .
463d: 10 15                     BPL loc_4654      ; ..
463f: 47                        .BYTE $47         ; G
4640: 08                        PHP               ; .
4641: 47                        .BYTE $47         ; G
4642: fb        loc_4642        .BYTE $fb         ; .
4643: 46 e5                     LSR FR1+5         ; F.
4645: 47                        .BYTE $47         ; G
4646: 40                        RTI               ; Return from interrupt handler

4647: a0 c0                     LDY #$c0          ; ..
4649: ff                        .BYTE $ff         ; .
464a: 08                        PHP               ; .
464b: 07                        .BYTE $07         ; .
464c: 00                        BRK               ; .
464d: 11 3c                     ORA (NOCKSM),Y    ; .<
464f: 47 2f 47 22 47            .BYTE $47,$2f,$47,$22,$47  ; G/G"G
4654: e5 47     loc_4654        SBC ZSBA          ; .G
4656: 80                        .BYTE $80         ; .
4657: c0 f0                     CPY #$f0          ; ..
4659: ff                        .BYTE $ff         ; .
465a: 00                        BRK               ; .
465b: 00                        BRK               ; .
465c: 09 0a                     ORA #$0a          ; ..
465e: e5 47                     SBC ZSBA          ; .G
4660: 49 47                     EOR #$47          ; IG
4662: 56 47                     LSR ZSBA,X        ; VG
4664: 63 47                     .BYTE $63,$47     ; cG
4666: 08                        PHP               ; .
4667: 10 20                     BPL loc_4689      ; .
4669: ff                        .BYTE $ff         ; .
466a: 00                        BRK               ; .
466b: 00                        BRK               ; .
466c: 0b 0c                     .BYTE $0b,$0c     ; ..
466e: e5 47                     SBC ZSBA          ; .G
4670: 70 47                     BVS loc_46b9      ; pG
4672: 7d 47 8a                  ADC $8a47,X       ; }G.
4675: 47                        .BYTE $47         ; G
4676: 40                        RTI               ; Return from interrupt handler

4677: 60        xxx             RTS               ; `
4678: 80 ff                     .BYTE $80,$ff     ; ..
467a: 00                        BRK               ; .
467b: 00                        BRK               ; .
467c: 0d 0e e5                  ORA $e50e         ; ...
467f: 47 97 47                  .BYTE $47,$97,$47  ; G.G
4682: a4 47                     LDY ZSBA          ; .G
4684: b1 47                     LDA (ZSBA),Y      ; .G
4686: 20 20 20                  JSR loc_2020      ;
4689: 46 72     loc_4689        LSR COLAC         ; Fr
468b: 65 65                     ADC ADRESS+1      ; ee
468d: 7a                        .BYTE $7a         ; z
468e: 69 6e                     ADC #$6e          ; in
4690: 67                        .BYTE $67         ; g
4691: 21 00                     AND (LINZBS,X)    ; !.
4693: 20 20 20                  JSR loc_2020      ;
4696: 20 20 20                  JSR loc_2020      ;
4699: 20 20 43                  JSR loc_4320      ;   C
469c: 6f                        .BYTE $6f         ; o
469d: 6c 64 00                  JMP (ADRESS)      ; ld.
46a0: 20 20 20                  JSR loc_2020      ;
46a3: 20 20 20                  JSR loc_2020      ;
46a6: 43                        .BYTE $43         ; C
46a7: 68                        PLA               ; h
46a8: 69 6c                     ADC #$6c          ; il
46aa: 6c 79 00                  JMP (ROWINC)      ; ly.
46ad: 20 20 20                  JSR loc_2020      ;
46b0: 20 20 20                  JSR loc_2020      ;
46b3: 20 20 57                  JSR loc_5720      ;   W
46b6: 61 72                     ADC (COLAC,X)     ; ar
46b8: 6d 00 20                  ADC loc_2000      ; m.
46bb: 20 20 20                  JSR loc_2020      ;
46be: 20 20 20                  JSR loc_2020      ;
46c1: 20 20 48                  JSR loc_4820      ;   H
46c4: 6f 74                     .BYTE $6f,$74     ; ot
46c6: 00                        BRK               ; .
46c7: 20 20 20                  JSR loc_2020      ;
46ca: 52 6f                     .BYTE $52,$6f     ; Ro
46cc: 61 73                     ADC (COLAC+1,X)   ; as
46ce: 74                        .BYTE $74         ; t
46cf: 69 6e                     ADC #$6e          ; in
46d1: 67                        .BYTE $67         ; g
46d2: 21 00                     AND (LINZBS,X)    ; !.
46d4: 48                        PHA               ; H
46d5: 75 6e                     ADC BITMSK,X      ; un
46d7: 67 72                     .BYTE $67,$72     ; gr
46d9: 79 20 20                  ADC loc_2020,Y    ; y
46dc: 20 20 20                  JSR loc_2020      ;
46df: 20 00 46                  JSR loc_4600      ;  .F
46e2: 61 6d                     ADC (BUFSTR+1,X)  ; am
46e4: 69 73                     ADC #$73          ; is
46e6: 68                        PLA               ; h
46e7: 65 64                     ADC ADRESS        ; ed
46e9: 20 20 20                  JSR loc_2020      ;
46ec: 20 00 53                  JSR loc_5300      ;  .S
46ef: 74                        .BYTE $74         ; t
46f0: 61 72                     ADC (COLAC,X)     ; ar
46f2: 76 69                     ROR SAVADR+1,X    ; vi
46f4: 6e 67 21                  ROR loc_2167      ; ng!
46f7: 20 20 20                  JSR loc_2020      ;
46fa: 00                        BRK               ; .
46fb: 54                        .BYTE $54         ; T
46fc: 68                        PLA               ; h
46fd: 69 72                     ADC #$72          ; ir
46ff: 73 74                     .BYTE $73,$74     ; st
4701: 79 20 20                  ADC loc_2020,Y    ; y
4704: 20 20 20                  JSR loc_2020      ;
4707: 00                        BRK               ; .
4708: 50 61                     BVC loc_476b      ; Pa
470a: 72 63                     .BYTE $72,$63     ; rc
470c: 68                        PLA               ; h
470d: 65 64                     ADC ADRESS        ; ed
470f: 20 20 20                  JSR loc_2020      ;
4712: 20 20 00                  JSR $20           ;   .
4715: 44                        .BYTE $44         ; D
4716: 65 68                     ADC SAVADR        ; eh
4718: 79 64 72                  ADC $7264,Y       ; ydr
471b: 61 74                     ADC (ENDPT,X)     ; at
471d: 65 64                     ADC ADRESS        ; ed
471f: 21 20                     AND (ICHIDZ,X)    ; !
4721: 00                        BRK               ; .
4722: 57                        .BYTE $57         ; W
4723: 65 61                     ADC NEWCOL        ; ea
4725: 72                        .BYTE $72         ; r
4726: 79 20 20                  ADC loc_2020,Y    ; y
4729: 20 20 20                  JSR loc_2020      ;
472c: 20 20 00                  JSR $20           ;   .
472f: 54                        .BYTE $54         ; T
4730: 69 72                     ADC #$72          ; ir
4732: 65 64                     ADC ADRESS        ; ed
4734: 20 20 20                  JSR loc_2020      ;
4737: 20 20 20                  JSR loc_2020      ;
473a: 20 00 45                  JSR $4500         ;  .E
473d: 78                        SEI               ; x
473e: 68                        PLA               ; h
473f: 61 75                     ADC (ENDPT+1,X)   ; au
4741: 73 74                     .BYTE $73,$74     ; st
4743: 65 64                     ADC ADRESS        ; ed
4745: 21 20                     AND (ICHIDZ,X)    ; !
4747: 20 00 20                  JSR $2000         ;  .
474a: 20 20 20                  JSR loc_2020      ;
474d: 42                        .BYTE $42         ; B
474e: 75 72                     ADC COLAC,X       ; ur
4750: 64                        .BYTE $64         ; d
4751: 65 6e                     ADC BITMSK        ; en
4753: 65 64     loc_4753        ADC ADRESS        ; ed
4755: 00                        BRK               ; .
4756: 20 20 45                  JSR loc_4520      ;   E
4759: 6e 63 75                  ROR $7563         ; ncu
475c: 6d 62 65                  ADC $6562         ; mbe
475f: 72                        .BYTE $72         ; r
4760: 65 64                     ADC ADRESS        ; ed
4762: 00                        BRK               ; .
4763: 49 6d                     EOR #$6d          ; Im
4765: 6d 6f 62                  ADC loc_626f      ; mob
4768: 69 6c                     ADC #$6c          ; il
476a: 69 7a                     ADC #$7a          ; iz
476c: 65 64                     ADC ADRESS        ; ed
476e: 21 00                     AND (LINZBS,X)    ; !.
4770: 54                        .BYTE $54         ; T
4771: 69 70                     ADC #$70          ; ip
4773: 73                        .BYTE $73         ; s
4774: 79 20 20                  ADC loc_2020,Y    ; y
4777: 20 20 20                  JSR loc_2020      ;
477a: 20 20 00                  JSR $20           ;   .
477d: 44 72                     .BYTE $44,$72     ; Dr
477f: 75 6e                     ADC BITMSK,X      ; un
4781: 6b                        .BYTE $6b         ; k
4782: 20 20 20                  JSR loc_2020      ;
4785: 20 20 20                  JSR loc_2020      ;
4788: 20 00 56                  JSR loc_5600      ;  .V
478b: 65 72                     ADC COLAC         ; er
478d: 79 20 44                  ADC loc_4420,Y    ; y D
4790: 72                        .BYTE $72         ; r
4791: 75 6e                     ADC BITMSK,X      ; un
4793: 6b                        .BYTE $6b         ; k
4794: 21 20                     AND (ICHIDZ,X)    ; !
4796: 00                        BRK               ; .
4797: 20 20 20                  JSR loc_2020      ;
479a: 20 46 75                  JSR $7546         ;  Fu
479d: 6c 6c 20                  JMP (loc_206c)    ; ll
47a0: 20 20 20                  JSR loc_2020      ;
47a3: 00                        BRK               ; .
47a4: 20 20 53                  JSR sub_5320_bad      ;   S
47a7: 74                        .BYTE $74         ; t
47a8: 75 66                     ADC MLTTMP,X      ; uf
47aa: 66 65                     ROR ADRESS+1      ; fe
47ac: 64                        .BYTE $64         ; d
47ad: 20 20 20                  JSR loc_2020      ;
47b0: 00                        BRK               ; .
47b1: 20 20 42                  JSR loc_4220      ;   B
47b4: 6c 6f 61                  JMP (loc_616f)    ; loa
47b7: 74                        .BYTE $74         ; t
47b8: 65 64                     ADC ADRESS        ; ed
47ba: 21 20                     AND (dat_0020,X)    ; !
47bc: 20 00 20                  JSR $2000         ;  .
47bf: 20 20 50                  JSR bad_5020      ;   P
47c2: 6f                        .BYTE $6f         ; o
47c3: 69 73                     ADC #$73          ; is
47c5: 6f                        .BYTE $6f         ; o
47c6: 6e 65 64                  ROR $6465         ; ned
47c9: 21 00                     AND (LINZBS,X)    ; !.
47cb: 20 20 20                  JSR loc_2020      ;
47ce: 44                        .BYTE $44         ; D
47cf: 69 73                     ADC #$73          ; is
47d1: 65 61                     ADC NEWCOL        ; ea
47d3: 73                        .BYTE $73         ; s
47d4: 65 64                     ADC ADRESS        ; ed
47d6: 21 00                     AND (LINZBS,X)    ; !.
47d8: 20 20 20                  JSR loc_2020      ;
47db: 43                        .BYTE $43         ; C
47dc: 75 72                     ADC COLAC,X       ; ur
47de: 73                        .BYTE $73         ; s
47df: 65 64                     ADC ADRESS        ; ed
47e1: 21 20                     AND (dat_0020,X)    ; !
47e3: 20 00 20                  JSR $2000         ;  .
47e6: 20 20 20                  JSR loc_2020      ;
47e9: 20 20 20                  JSR loc_2020      ;
47ec: 20 20 20                  JSR loc_2020      ;
47ef: 20 20 00                  JSR $20           ;   .
47f2: a5 0f     loc_47f2        LDA APPMHI+1      ; ..
47f4: f0 03                     BEQ loc_47f9      ; ..
47f6: 4c af 49                  JMP loc_49af      ; L.I
47f9: 85 49     loc_47f9        STA ERRNO         ; .I
47fb: 8d 91 63                  STA CHR_DISEASE   ; ..c
47fe: 8d 92 63                  STA CHR_POISON    ; ..c
4801: 8d 93 63                  STA CHR_CURSE     ; ..c
4804: a9 f0                     LDA #$f0          ; ..
4806: 85 50                     STA TEMP          ; .P
4808: a9 00                     LDA #$00          ; ..
480a: 85 3d                     STA dat_003d_L          ; .=
480c: a9 65                     LDA #$65          ; .e
480e: 85 3e                     STA FTYPE         ; .>
4810: a0 00     loc_4810        LDY #$00          ; ..
4812: b1 3d                     LDA (dat_003d_L),Y      ; .=
4814: c9 81                     CMP #$81          ; ..
4816: b0 03                     BCS loc_481b      ; ..
4818: 4c 99 49                  JMP loc_4999      ; L.I
481b: c9 e0     loc_481b        CMP #$e0          ; ..
481d: 90 03                     BCC loc_4822      ; ..
481f: 4c 99 49                  JMP loc_4999      ; L.I
4822: 29 07     loc_4822        AND #$07          ; ).
4824: f0 08                     BEQ loc_482e      ; ..
4826: c9 04                     CMP #$04          ; ..
4828: b0 04                     BCS loc_482e      ; ..
482a: aa                        TAX               ; .
482b: de 90 63                  DEC CHR_LIT_TORCH_FLAG,X  ; ..c
482e: a0 04     loc_482e        LDY #$04          ; ..
4830: b1 3d                     LDA (dat_003d_L),Y      ; .=
4832: c8                        INY               ; .
4833: 11 3d                     ORA (dat_003d_L),Y      ; .=
4835: d0 03                     BNE loc_483a      ; ..
4837: 4c 99 49                  JMP loc_4999      ; L.I
483a: 88        loc_483a        DEY               ; .
483b: 38                        SEC               ; 8
483c: b1 3d                     LDA (dat_003d_L),Y      ; .=
483e: e9 01                     SBC #$01          ; ..
4840: 91 3d                     STA (dat_003d_L),Y      ; .=
4842: c8                        INY               ; .
4843: b1 3d     sub_4843_bad        LDA (dat_003d_L),Y      ; .=
4845: e9 00                     SBC #$00          ; ..
4847: 91 3d                     STA (dat_003d_L),Y      ; .=
4849: 88                        DEY               ; .
484a: 11 3d                     ORA (dat_003d_L),Y      ; .=
484c: f0 03                     BEQ loc_4851      ; ..
484e: 4c 99 49                  JMP loc_4999      ; L.I
4851: a0 00     loc_4851        LDY #$00          ; ..
4853: b1 3d                     LDA (dat_003d_L),Y      ; .=
4855: 29 bf                     AND #$bf          ; ).
4857: d1 3d                     CMP (dat_003d_L),Y      ; .=
4859: f0 38                     BEQ loc_4893      ; .8
485b: 91 3d                     STA (dat_003d_L),Y      ; .=
485d: a6 49                     LDX ERRNO         ; .I
485f: a0 01                     LDY #$01          ; ..
4861: b1 3d                     LDA (dat_003d_L),Y      ; .=
4863: 85 4a                     STA CKEY          ; .J
4865: a5 3d                     LDA dat_003d_L          ; .=
4867: 85 3f                     STA FEOF          ; .?
4869: a5 3e                     LDA FTYPE         ; .>
486b: 85 40                     STA FREQ          ; .@
486d: e8        loc_486d        INX               ; .
486e: e0 40                     CPX #$40          ; .@
4870: b0 21                     BCS loc_4893      ; .!
4872: a5 3f                     LDA FEOF          ; .?
4874: 18                        CLC               ; .
4875: 69 10                     ADC #$10          ; i.
4877: 85 3f                     STA FEOF          ; .?
4879: 90 02                     BCC loc_487d      ; ..
487b: e6 40                     INC FREQ          ; .@
487d: a0 00     loc_487d        LDY #$00          ; ..
487f: b1 3f                     LDA (FEOF),Y      ; .?
4881: c9 e0                     CMP #$e0          ; ..
4883: 90 e8                     BCC loc_486d      ; ..
4885: c8                        INY               ; .
4886: b1 3f                     LDA (FEOF),Y      ; .?
4888: c5 4a                     CMP CKEY          ; .J
488a: d0 e1                     BNE loc_486d      ; ..
488c: 88                        DEY               ; .
488d: b1 3f                     LDA (FEOF),Y      ; .?
488f: 09 08                     ORA #$08          ; ..
4891: 91 3f                     STA (FEOF),Y      ; .?
4893: a0 06     loc_4893        LDY #$06          ; ..
4895: b1 3d                     LDA (dat_003d_L),Y      ; .=
4897: aa                        TAX               ; .
4898: c8                        INY               ; .
4899: b1 3d                     LDA (dat_003d_L),Y      ; .=
489b: a0 05                     LDY #$05          ; ..
489d: 91 3d                     STA (dat_003d_L),Y      ; .=
489f: 88                        DEY               ; .
48a0: 8a                        TXA               ; .
48a1: 91 3d                     STA (dat_003d_L),Y      ; .=
48a3: ad 0a d2                  LDA RANDOM        ; ...
48a6: c9 20                     CMP #$20          ; .
48a8: b0 0f                     BCS loc_48b9      ; ..
48aa: ad 0a d2                  LDA RANDOM        ; ...
48ad: a0 08                     LDY #$08          ; ..
48af: d1 3d                     CMP (dat_003d_L),Y      ; .=
48b1: b0 06                     BCS loc_48b9      ; ..
48b3: 20 01 4a                  JSR loc_4a01      ;  .J
48b6: 4c 99 49                  JMP loc_4999      ; L.I
48b9: a0 0a     loc_48b9        LDY #$0a          ; ..
48bb: b1 3d                     LDA (dat_003d_L),Y      ; .=
48bd: 85 45                     STA ZDRVA         ; .E
48bf: c8                        INY               ; .
48c0: 18                        CLC               ; .
48c1: b1 3d                     LDA (dat_003d_L),Y      ; .=
48c3: 85 46                     STA ZDRVA+1       ; .F
48c5: 10 17                     BPL loc_48de      ; ..
48c7: a0 0f                     LDY #$0f          ; ..
48c9: b1 3d                     LDA (dat_003d_L),Y      ; .=
48cb: aa                        TAX               ; .
48cc: a5 45                     LDA ZDRVA         ; .E
48ce: 7d 0b 64                  ADC INV_ARR_START,X  ; }.d
48d1: 85 45                     STA ZDRVA         ; .E
48d3: a5 46                     LDA ZDRVA+1       ; .F
48d5: 29 7f                     AND #$7f          ; )
48d7: 7d 4b 64                  ADC INV_ARR_END,X  ; }Kd
48da: 85 46                     STA ZDRVA+1       ; .F
48dc: d0 0c                     BNE loc_48ea      ; ..
48de: a5 45     loc_48de        LDA ZDRVA         ; .E
48e0: 69 00                     ADC #$00          ; i.
48e2: 85 45                     STA ZDRVA         ; .E
48e4: a5 46                     LDA ZDRVA+1       ; .F
48e6: 69 63                     ADC #$63          ; ic
48e8: 85 46                     STA ZDRVA+1       ; .F
48ea: a0 0e     loc_48ea        LDY #$0e          ; ..
48ec: b1 3d                     LDA (dat_003d_L),Y      ; .=
48ee: 85 51                     STA HOLD1         ; .Q
48f0: a0 0c                     LDY #$0c          ; ..
48f2: b1 3d                     LDA (dat_003d_L),Y      ; .=
48f4: 85 52                     STA LMARGN        ; .R
48f6: a0 0d                     LDY #$0d          ; ..
48f8: b1 3d                     LDA (dat_003d_L),Y      ; .=
48fa: 85 53                     STA RMARGN        ; .S
48fc: a0 09                     LDY #$09          ; ..
48fe: b1 3d                     LDA (dat_003d_L),Y      ; .=
4900: 30 11                     BMI loc_4913      ; 0.
4902: a8                        TAY               ; .
4903: 88                        DEY               ; .
4904: 84 54                     STY ROWCRS        ; .T
4906: a9 78                     LDA #$78          ; .x
4908: 8d 37 49                  STA loc_4937      ; .7I
490b: a9 49                     LDA #$49          ; .I
490d: 8d 38 49                  STA loc_4938      ; .8I
4910: 4c 36 49                  JMP loc_4936      ; L6I
4913: 48        loc_4913        PHA               ; H
4914: 29 0f                     AND #$0f          ; ).
4916: a8                        TAY               ; .
4917: 88                        DEY               ; .
4918: 84 54                     STY ROWCRS        ; .T
491a: 68                        PLA               ; h
491b: 29 70                     AND #$70          ; )p
491d: 4a                        LSR               ; J
491e: 4a                        LSR               ; J
491f: 4a                        LSR               ; J
4920: aa        sub_4920_bad        TAX               ; .
4921: bd 68 49                  LDA loc_4968,X    ; .hI
4924: 8d 37 49                  STA loc_4937      ; .7I
4927: bd 69 49                  LDA loc_4969,X    ; .iI
492a: 8d 38 49                  STA loc_4938      ; .8I
492d: 8a                        TXA               ; .
492e: 4a                        LSR               ; J
492f: aa                        TAX               ; .
4930: bd 61 49                  LDA loc_4961,X    ; .aI
4933: 8d 5b 49                  STA loc_495b      ; .[I
4936: 4c ff ff  loc_4936        JMP $ffff         ; L..
4939: 18        loc_4939        CLC               ; .
493a: a5 45                     LDA ZDRVA         ; .E
493c: 65 53                     ADC RMARGN        ; eS
493e: 85 45                     STA ZDRVA         ; .E
4940: 90 02                     BCC loc_4944      ; ..
4942: e6 46                     INC ZDRVA+1       ; .F
4944: a4 54     loc_4944        LDY ROWCRS        ; .T
4946: c6 52                     DEC LMARGN        ; .R
4948: d0 ec                     BNE loc_4936      ; ..
494a: 4c 84 49                  JMP loc_4984      ; L.I
494d: 20 48 2e                  JSR loc_2e48      ;  H.
4950: 4c 39 49                  JMP loc_4939      ; L9I
4953: 20 6e 2e                  JSR loc_2e6e      ;  n.
4956: 4c 39 49                  JMP loc_4939      ; L9I
4959: b1 45     loc_4959        LDA (ZDRVA),Y     ; .E
495b: 45 51     loc_495b        EOR HOLD1         ; EQ
495d: 91 45                     STA (ZDRVA),Y     ; .E
495f: 88                        DEY               ; .
4960: 10 f7                     BPL loc_4959      ; ..
4962: 4c 39 49                  JMP loc_4939      ; L9I
4965: 45 25                     EOR dat_0025      ; E%
4967: 05 4d                     ORA ATRACT        ; .M
4969: 49 53     loc_4969        EOR #$53          ; IS
496b: 49 39                     EOR #$39          ; I9
496d: 49 39                     EOR #$39          ; I9
496f: 49 59                     EOR #$59          ; IY
4971: 49 59                     EOR #$59          ; IY
4973: 49 59                     EOR #$59          ; IY
4975: 49 82                     EOR #$82          ; I.
4977: 49 a5                     EOR #$a5          ; I.
4979: 51 91                     EOR (MEMTOP+1),Y  ; Q.
497b: 45 88                     EOR STMTAB        ; E.
497d: 10 fb                     BPL loc_497a      ; ..
497f: 4c 39 49                  JMP loc_4939      ; L9I
4982: 00                        BRK               ; .
4983: 60                        RTS               ; `
4984: a0 03     loc_4984        LDY #$03          ; ..
4986: b1 3d                     LDA (dat_003d_L),Y      ; .=
4988: f0 0a                     BEQ loc_4994      ; ..
498a: 38                        SEC               ; 8
498b: e9 01                     SBC #$01          ; ..
498d: 91 3d                     STA (dat_003d_L),Y      ; .=
498f: d0 03                     BNE loc_4994      ; ..
4991: 20 01 4a                  JSR loc_4a01      ;  .J
4994: a9 80     loc_4994        LDA #$80          ; ..
4996: 8d 5f 19                  STA UNK_BYTE_195F  ; ._.
4999: a5 3d     loc_4999        LDA dat_003d_L          ; .=
499b: 18                        CLC               ; .
499c: 69 10                     ADC #$10          ; i.
499e: 85 3d                     STA dat_003d_L          ; .=
49a0: 90 02                     BCC loc_49a4      ; ..
49a2: e6 3e                     INC FTYPE         ; .>
49a4: e6 49     loc_49a4        INC ERRNO         ; .I
49a6: a5 49                     LDA ERRNO         ; .I
49a8: c9 40                     CMP #$40          ; .@
49aa: b0 03                     BCS loc_49af      ; ..
49ac: 4c 10 48                  JMP loc_4810      ; L.H
49af: 60        loc_49af        RTS               ; `
49b0: a2 40     loc_49b0        LDX #$40          ; .@
49b2: 86 55                     STX COLCRS        ; .U
49b4: a2 00                     LDX #$00          ; ..
49b6: 85 57                     STA DINDEX        ; .W
49b8: c9 f0                     CMP #$f0          ; ..
49ba: 90 04                     BCC loc_49c0      ; ..
49bc: a2 10                     LDX #$10          ; ..
49be: c6 55                     DEC COLCRS        ; .U
49c0: 86 56     loc_49c0        STX COLCRS+1      ; .V
49c2: a9 00                     LDA #$00          ; ..
49c4: 85 3d                     STA dat_003d_L          ; .=
49c6: a9 65                     LDA #$65          ; .e
49c8: 85 3e                     STA FTYPE         ; .>
49ca: a2 00                     LDX #$00          ; ..
49cc: a4 56     loc_49cc        LDY COLCRS+1      ; .V
49ce: a9 80                     LDA #$80          ; ..
49d0: d1 3d                     CMP (dat_003d_L),Y      ; .=
49d2: d0 0a                     BNE loc_49de      ; ..
49d4: c0 00                     CPY #$00          ; ..
49d6: f0 1d                     BEQ loc_49f5      ; ..
49d8: a0 00                     LDY #$00          ; ..
49da: d1 3d                     CMP (dat_003d_L),Y      ; .=
49dc: f0 17                     BEQ loc_49f5      ; ..
49de: a5 3d     loc_49de        LDA dat_003d_L          ; .=
49e0: 18                        CLC               ; .
49e1: 69 10                     ADC #$10          ; i.
49e3: 85 3d                     STA dat_003d_L          ; .=
49e5: 90 02                     BCC loc_49e9      ; ..
49e7: e6 3e                     INC FTYPE         ; .>
49e9: e8        loc_49e9        INX               ; .
49ea: e4 55                     CPX COLCRS        ; .U
49ec: 90 de                     BCC loc_49cc      ; ..
49ee: a2 00                     LDX #$00          ; ..
49f0: 86 3e                     STX FTYPE         ; .>
49f2: ca                        DEX               ; .
49f3: 30 08                     BMI loc_49fd      ; 0.
49f5: a5 57     loc_49f5        LDA DINDEX        ; .W
49f7: 91 3d                     STA (dat_003d_L),Y      ; .=
49f9: c8                        INY               ; .
49fa: 8a                        TXA               ; .
49fb: 91 3d                     STA (dat_003d_L),Y      ; .=
49fd: 86 49     loc_49fd        STX ERRNO         ; .I
49ff: 8a                        TXA               ; .
4a00: 60                        RTS               ; `
4a01: ce 5f 19  loc_4a01        DEC UNK_BYTE_195F  ; ._.
4a04: a5 49                     LDA ERRNO         ; .I
4a06: a2 04                     LDX #$04          ; ..
4a08: 0a        loc_4a08        ASL               ; .
4a09: 26 40                     ROL FREQ          ; &@
4a0b: ca                        DEX               ; .
4a0c: d0 fa                     BNE loc_4a08      ; ..
4a0e: 18                        CLC               ; .
4a0f: 69 00                     ADC #$00          ; i.
4a11: 85 3f                     STA FEOF          ; .?
4a13: a5 40                     LDA FREQ          ; .@
4a15: 29 0f                     AND #$0f          ; ).
4a17: 69 65                     ADC #$65          ; ie
4a19: 85 40                     STA FREQ          ; .@
4a1b: 20 4a 4a                  JSR loc_4a4a      ;  JJ
4a1e: a5 49                     LDA ERRNO         ; .I
4a20: aa                        TAX               ; .
4a21: c8                        INY               ; .
4a22: d1 3f                     CMP (FEOF),Y      ; .?
4a24: f0 13                     BEQ loc_4a39      ; ..
4a26: 60                        RTS               ; `
4a27: a0 00     loc_4a27        LDY #$00          ; ..
4a29: b1 3f                     LDA (FEOF),Y      ; .?
4a2b: c9 81                     CMP #$81          ; ..
4a2d: 90 0a                     BCC loc_4a39      ; ..
4a2f: c8                        INY               ; .
4a30: b1 3f                     LDA (FEOF),Y      ; .?
4a32: c5 49                     CMP ERRNO         ; .I
4a34: d0 03                     BNE loc_4a39      ; ..
4a36: 20 4a 4a                  JSR loc_4a4a      ;  JJ
4a39: a5 3f     loc_4a39        LDA FEOF          ; .?
4a3b: 18                        CLC               ; .
4a3c: 69 10                     ADC #$10          ; i.
4a3e: 85 3f                     STA FEOF          ; .?
4a40: 90 02                     BCC loc_4a44      ; ..
4a42: e6 40                     INC FREQ          ; .@
4a44: e8        loc_4a44        INX               ; .
4a45: e0 40                     CPX #$40          ; .@
4a47: 90 de                     BCC loc_4a27      ; ..
4a49: 60                        RTS               ; `
4a4a: a0 00     loc_4a4a        LDY #$00          ; ..
4a4c: b1 3f                     LDA (FEOF),Y      ; .?
4a4e: c9 f0                     CMP #$f0          ; ..
4a50: 90 08                     BCC loc_4a5a      ; ..
4a52: a0 10                     LDY #$10          ; ..
4a54: a9 80                     LDA #$80          ; ..
4a56: 91 3f                     STA (FEOF),Y      ; .?
4a58: a0 00                     LDY #$00          ; ..
4a5a: a9 80     loc_4a5a        LDA #$80          ; ..
4a5c: 91 3f                     STA (FEOF),Y      ; .?
4a5e: 60                        RTS               ; `
4a5f: a5 0f     loc_4a5f        LDA APPMHI+1      ; ..
4a61: d0 1f                     BNE loc_4a82      ; ..
4a63: c6 0f                     DEC APPMHI+1      ; ..
4a65: a2 00                     LDX #$00          ; ..
4a67: 86 4b                     STX CASSBT        ; .K
4a69: bd 4b 64  loc_4a69        LDA INV_ARR_END,X  ; .Kd
4a6c: f0 0a                     BEQ loc_4a78      ; ..
4a6e: 85 42                     STA CRITIC        ; .B
4a70: bd 0b 64                  LDA INV_ARR_START,X  ; ..d
4a73: 85 41                     STA SOUNDR        ; .A
4a75: 20 b3 4b                  JSR sub_4bb3      ;  .K
4a78: e6 4b     loc_4a78        INC CASSBT        ; .K
4a7a: a6 4b                     LDX CASSBT        ; .K
4a7c: e0 40                     CPX #$40          ; .@
4a7e: 90 e9                     BCC loc_4a69      ; ..
4a80: e6 0f                     INC APPMHI+1      ; ..
4a82: 60        loc_4a82        RTS               ; `
4a83: 85 4f     loc_4a83        STA COLRSH        ; .O
4a85: a2 3f                     LDX #$3f          ; .?
4a87: bd 4b 64  loc_4a87        LDA INV_ARR_END,X  ; .Kd
4a8a: f0 05                     BEQ loc_4a91      ; ..
4a8c: ca                        DEX               ; .
4a8d: 10 f8                     BPL loc_4a87      ; ..
4a8f: 30 2d                     BMI loc_4abe      ; 0-
4a91: 86 4b     loc_4a91        STX CASSBT        ; .K
4a93: 18                        CLC               ; .
4a94: ad e4 64                  LDA $64e4         ; ..d
4a97: 9d 0b 64                  STA INV_ARR_START,X  ; ..d
4a9a: 85 41                     STA SOUNDR        ; .A
4a9c: 65 4f                     ADC COLRSH        ; eO
4a9e: a8                        TAY               ; .
4a9f: ad e5 64                  LDA $64e5         ; ..d
4aa2: 9d 4b 64                  STA INV_ARR_END,X  ; .Kd
4aa5: 85 42                     STA CRITIC        ; .B
4aa7: 69 00                     ADC #$00          ; i.
4aa9: aa                        TAX               ; .
4aaa: c9 75                     CMP #$75          ; .u
4aac: 90 08                     BCC loc_4ab6      ; ..
4aae: f0 02                     BEQ loc_4ab2      ; ..
4ab0: b0 0d                     BCS loc_4abf      ; ..
4ab2: c0 00     loc_4ab2        CPY #$00          ; ..
4ab4: b0 09                     BCS loc_4abf      ; ..
4ab6: 8c e4 64  loc_4ab6        STY $64e4         ; ..d
4ab9: 8e e5 64                  STX $64e5         ; ..d
4abc: a5 4b                     LDA CASSBT        ; .K
4abe: 60        loc_4abe        RTS               ; `
4abf: a6 4b     loc_4abf        LDX CASSBT        ; .K
4ac1: a9 00                     LDA #$00          ; ..
4ac3: 9d 4b 64                  STA INV_ARR_END,X  ; .Kd
4ac6: a9 ff                     LDA #$ff          ; ..
4ac8: 60                        RTS               ; `
4ac9: 85 4b     loc_4ac9        STA CASSBT        ; .K
4acb: aa                        TAX               ; .
4acc: bd 0b 64                  LDA INV_ARR_START,X  ; ..d
4acf: 85 41                     STA SOUNDR        ; .A
4ad1: bd 4b 64                  LDA INV_ARR_END,X  ; .Kd
4ad4: 85 42                     STA CRITIC        ; .B
4ad6: a5 4c                     LDA dat_004c      ; .L
4ad8: 48                        PHA               ; H
4ad9: a9 ff                     LDA #$ff          ; ..
4adb: 85 4c                     STA dat_004c      ; .L
4add: 20 93 4d                  JSR sub_4d93      ;  .M
4ae0: 68                        PLA               ; h
4ae1: 85 4c                     STA dat_004c      ; .L
4ae3: 20 a2 4e                  JSR sub_4ea2      ;  .N
4ae6: 20 90 4e                  JSR sub_4e90      ;  .N
4ae9: a6 4b                     LDX CASSBT        ; .K
4aeb: a9 00                     LDA #$00          ; ..
4aed: 9d 4b 64                  STA INV_ARR_END,X  ; .Kd
4af0: a0 01                     LDY #$01          ; ..
4af2: b1 41                     LDA (SOUNDR),Y    ; .A
4af4: 85 4f                     STA COLRSH        ; .O
4af6: a5 41                     LDA SOUNDR        ; .A
4af8: 85 09                     STA dat_0009_L      ; ..
4afa: 18                        CLC               ; .
4afb: 65 4f                     ADC COLRSH        ; eO
4afd: 85 07                     STA dat_0007_L    ; ..
4aff: a5 42                     LDA CRITIC        ; .B
4b01: 85 0a                     STA dat_0009_H    ; ..
4b03: 69 00                     ADC #$00          ; i.
4b05: 85 08                     STA dat_0007_H    ; ..
4b07: 38                        SEC               ; 8
4b08: a9 00                     LDA #$00          ; ..
4b0a: e5 07                     SBC dat_0007_L    ; ..
4b0c: a8                        TAY               ; .
4b0d: a9 75                     LDA #$75          ; .u
4b0f: e5 08                     SBC dat_0007_H    ; ..
4b11: aa                        TAX               ; .
4b12: 20 0d 2e                  JSR sub_2e0d      ;  ..
4b15: 38                        SEC               ; 8
4b16: ad e4 64                  LDA $64e4         ; ..d
4b19: e5 4f                     SBC COLRSH        ; .O
4b1b: 8d e4 64                  STA $64e4         ; ..d
4b1e: ad e5 64                  LDA $64e5         ; ..d
4b21: e9 00                     SBC #$00          ; ..
4b23: 8d e5 64                  STA $64e5         ; ..d
4b26: a2 3f                     LDX #$3f          ; .?
4b28: 38        loc_4b28        SEC               ; 8
4b29: bd 0b 64                  LDA INV_ARR_START,X  ; ..d
4b2c: e5 4f                     SBC COLRSH        ; .O
4b2e: a8                        TAY               ; .
4b2f: bd 4b 64                  LDA INV_ARR_END,X ; .Kd
4b32: f0 15                     BEQ loc_4b49      ; ..
4b34: e9 00                     SBC #$00          ; ..
4b36: c5 42                     CMP CRITIC        ; .B
4b38: 90 0f                     BCC loc_4b49      ; ..
4b3a: f0 02                     BEQ loc_4b3e      ; ..
4b3c: b0 04                     BCS loc_4b42      ; ..
4b3e: c4 41     loc_4b3e        CPY SOUNDR        ; .A
4b40: 90 07                     BCC loc_4b49      ; ..
4b42: 9d 4b 64  loc_4b42        STA INV_ARR_END,X ; .Kd
4b45: 98                        TYA               ; .
4b46: 9d 0b 64                  STA INV_ARR_START,X  ; ..d
4b49: ca        loc_4b49        DEX               ; .
4b4a: 10 dc                     BPL loc_4b28      ; ..
4b4c: 60                        RTS               ; `
4b4d: 84 07     loc_4b4d        STY dat_0007_L    ; ..
4b4f: 86 08                     STX dat_0007_H    ; ..
4b51: a0 01                     LDY #$01          ; ..
4b53: b1 07                     LDA (dat_0007_L),Y; ..
4b55: 20 83 4a                  JSR loc_4a83      ;  .J
4b58: 30 19                     BMI loc_4b73      ; 0.
4b5a: a2 64                     LDX #$64          ; .d
4b5c: a0 8b                     LDY #$8b          ; ..
4b5e: 18                        CLC               ; .
4b5f: 20 ab 2d                  JSR sub_2dab      ;  .-
4b62: a4 4f                     LDY COLRSH        ; .O
4b64: a2 00                     LDX #$00          ; ..
4b66: a5 41                     LDA SOUNDR        ; .A
4b68: 85 09                     STA dat_0009_L      ; ..
4b6a: a5 42                     LDA CRITIC        ; .B
4b6c: 85 0a                     STA dat_0009_H        ; ..
4b6e: 20 0d 2e                  JSR sub_2e0d      ;  ..
4b71: a5 4b                     LDA CASSBT        ; .K
4b73: 60        loc_4b73        RTS               ; Return to caller

4b74: aa        sub_4b74        TAX                  ; Set X = A
4b75: bd 0b 64                  LDA INV_ARR_START,X  ;
4b78: 85 41                     STA SOUNDR           ;
4b7a: bd 4b 64                  LDA INV_ARR_END,X    ;
4b7d: 85 42                     STA CRITIC           ;
4b7f: 60                        RTS                  ; Return to caller

4b80: a2 01                     LDX #$01             ;
4b82: 2c a2 02                  BIT D21_297_TEX1+2   ;
4b85: 2c a2 04                  BIT $04a2            ;
4b88: 2c a2 08                  BIT $08a2            ;
4b8b: 2c a2 10                  BIT $10a2            ;
4b8e: 85 4b                     STA CASSBT           ;
4b90: 86 4d                     STX ATRACT           ;
4b92: 20 aa 4b                  JSR loc_4baa         ;
4b95: a5 4b                     LDA CASSBT           ;
4b97: 20 74 4b                  JSR sub_4b74         ;
4b9a: f0 0d                     BEQ loc_4ba9         ;
4b9c: a0 02                     LDY #$02             ;
4b9e: a5 4d                     LDA ATRACT           ;
4ba0: 85 4c                     STA dat_004c         ;
4ba2: 91 41                     STA (SOUNDR),Y       ;
4ba4: 20 b3 4b                  JSR sub_4bb3         ;
4ba7: a9 ff                     LDA #$ff             ;
4ba9: 60        loc_4ba9        RTS                  ; Return to caller
4baa: 20 74 4b  loc_4baa        JSR sub_4b74         ;
4bad: f0 03                     BEQ loc_4bb2         ;
4baf: 20 b3 4b                  JSR sub_4bb3         ;
4bb2: 60        loc_4bb2        RTS                  ; Return to caller

4bb3: a0 02     sub_4bb3        LDY #$02             ;
4bb5: b1 41                     LDA (SOUNDR),Y       ;
4bb7: d0 01                     BNE loc_4bba         ;
4bb9: 60                        RTS                  ; Return to caller
4bba: 85 4c     loc_4bba        STA dat_004c         ;
4bbc: ce 60 19                  DEC UNK_BYTE_1960    ;
4bbf: ce 5f 19                  DEC UNK_BYTE_195F    ;
4bc2: a9 00                     LDA #$00             ;
4bc4: 91 41                     STA (SOUNDR),Y       ;
4bc6: 20 0f 4e                  JSR sub_4e0f         ;
      ; Count the number of LSB 0 bits in dat_004c
4bc9: a5 4c                     LDA dat_004c         ; Set A = value @ dat_004c
4bcb: a0 07                     LDY #$07             ; Set Y = 7
4bcd: a2 00                     LDX #$00             ; Set X = 0
4bcf: 4a        loc_4bcf        LSR                  ; A = A / 2
4bd0: b0 04                     BCS loc_4bd6         ; Exit loop if A was odd. X = number of 0 bits found
4bd2: e8                        INX                  ; Add one to X
4bd3: 88                        DEY                  ; Subtract one from Y
4bd4: d0 f9                     BNE loc_4bcf         ; Repeat while Y > 0 (max 7 iterations)
      ; The following indirectly jumps to the address (+1) stored @ tbl_4cbf_H + (X * 2)
4bd6: 8a        loc_4bd6        TXA                  ; Set A = X
4bd7: 0a                        ASL                  ; Set A = A * 2
4bd8: aa                        TAX                  ; Set X = A
4bd9: bd c0 4c                  LDA tbl_4cbf_H,X     ; Read the corresponding entry from
4bdc: 48                        PHA                  ;    tbl_4cbf_L/H
4bdd: bd bf 4c                  LDA tbl_4cbf_L,X     ;    and push it
4be0: 48                        PHA                  ;    onto the stack
4be1: 60                        RTS                  ; Indirectly jump to the address on the stack + 1

4be2: a9 80                     LDA #$80             ;
4be4: a0 00                     LDY #$00             ;
4be6: 11 41                     ORA (SOUNDR),Y       ;
4be8: 91 41                     STA (SOUNDR),Y       ;
4bea: 20 90 4e                  JSR sub_4e90         ;
4bed: a9 01                     LDA #$01             ;
4bef: 48                        PHA                  ;
4bf0: a9 02                     LDA #$02             ;
4bf2: 4c 95 4c                  JMP loc_4c95         ;
4bf5: a0 00                     LDY #$00             ;
4bf7: b1 41                     LDA (SOUNDR),Y       ;
4bf9: 30 03                     BMI loc_4bfe         ;
4bfb: 4c 9c 4c                  JMP loc_4c9c         ;
4bfe: 29 7f     loc_4bfe        AND #$7f             ;
4c00: 91 41                     STA (SOUNDR),Y       ;
4c02: c9 0b                     CMP #$0b             ;
4c04: d0 03                     BNE loc_4c09         ;
4c06: 20 fd 4e                  JSR sub_4efd         ;
4c09: 20 a2 4e  loc_4c09        JSR sub_4ea2         ;
4c0c: ae 93 64                  LDX $6493            ;
4c0f: bd 94 64                  LDA $6494,X          ;
4c12: 29 7f                     AND #$7f             ;
4c14: f0 11                     BEQ loc_4c27         ;
4c16: a5 4b                     LDA CASSBT           ;
4c18: 48                        PHA                  ;
4c19: bd d4 64                  LDA $64d4,X          ;
4c1c: 85 4b                     STA CASSBT           ;
4c1e: 20 c9 4a                  JSR loc_4ac9         ;
4c21: 68                        PLA                  ;
4c22: 85 4b                     STA CASSBT           ;
4c24: 20 74 4b                  JSR sub_4b74         ;
4c27: ae 93 64  loc_4c27        LDX $6493            ;
4c2a: ad 13 63                  LDA CHR_LOC_X        ;
4c2d: 9d a4 64                  STA $64a4,X          ;
4c30: ad 14 63                  LDA CHR_LOC_Y        ;
4c33: 9d b4 64                  STA $64b4,X          ;
4c36: ad 15 63                  LDA CHR_LOC_MAP      ;
4c39: 9d c4 64                  STA $64c4,X          ;
4c3c: a9 02                     LDA #$02             ;
4c3e: 9d 94 64                  STA $6494,X          ;
4c41: a5 4b                     LDA CASSBT           ;
4c43: 9d d4 64                  STA $64d4,X          ;
4c46: e8                        INX                  ;
4c47: 8a                        TXA                  ;
4c48: 29 0f                     AND #$0f             ;
4c4a: 8d 93 64                  STA $6493            ;
4c4d: a0 02                     LDY #$02             ;
4c4f: a9 08                     LDA #$08             ;
4c51: 91 41                     STA (SOUNDR),Y       ;
4c53: a9 02                     LDA #$02             ;
4c55: 48                        PHA                  ;
4c56: a9 01                     LDA #$01             ;
4c58: d0 3b                     BNE loc_4c95         ;
4c5a: a2 64                     LDX #$64             ;
4c5c: a0 8b                     LDY #$8b             ;
4c5e: a5 4b                     LDA CASSBT           ;
4c60: 38                        SEC                  ;
4c61: 20 ab 2d                  JSR sub_2dab         ;
4c64: a9 04                     LDA #$04             ;
4c66: 48                        PHA                  ;
4c67: a9 08                     LDA #$08             ;
4c69: d0 2a                     BNE loc_4c95         ;
4c6b: a0 00                     LDY #$00             ;
4c6d: b1 41                     LDA (SOUNDR),Y       ;
4c6f: 29 7f                     AND #$7f             ;
4c71: c9 0b                     CMP #$0b             ;
4c73: d0 03                     BNE loc_4c78         ;
4c75: 20 fd 4e                  JSR sub_4efd         ;
4c78: a2 64     loc_4c78        LDX #$64             ;
4c7a: a0 8b                     LDY #$8b             ;
4c7c: a5 4b                     LDA CASSBT           ;
4c7e: 20 e3 2d                  JSR sub_2de3         ;
4c81: b0 03                     BCS loc_4c86         ;
4c83: 4c 9c 4c                  JMP loc_4c9c         ;
4c86: a2 64     loc_4c86        LDX #$64             ;
4c88: a0 8b                     LDY #$8b             ;
4c8a: a5 4b                     LDA CASSBT           ;
4c8c: 18                        CLC                  ;
4c8d: 20 ab 2d                  JSR sub_2dab         ;
4c90: a9 08                     LDA #$08             ;
4c92: 48                        PHA                  ;
4c93: a9 04                     LDA #$04             ;
4c95: 20 93 4d  loc_4c95        JSR sub_4d93         ;
4c98: 68                        PLA                  ;
4c99: 20 cf 4c                  JSR loc_4ccf         ;
4c9c: 60        loc_4c9c        RTS                  ; Return to caller

4c9d: a0 00                     LDY #$00             ;
4c9f: b1 41                     LDA (SOUNDR),Y       ;
4ca1: c9 8b                     CMP #$8b             ;
4ca3: d0 08                     BNE loc_4cad         ;
4ca5: ad 90 63                  LDA CHR_LIT_TORCH_FLAG ;
4ca8: f0 03                     BEQ loc_4cad         ;
4caa: ce 90 63                  DEC CHR_LIT_TORCH_FLAG ;
4cad: a9 02     loc_4cad        LDA #$02             ;
4caf: 20 cf 4c                  JSR loc_4ccf         ;
4cb2: a9 08                     LDA #$08             ;
4cb4: 20 cf 4c                  JSR loc_4ccf         ;
4cb7: 20 90 4e                  JSR sub_4e90         ;
4cba: a5 4b                     LDA CASSBT           ;
4cbc: 4c c9 4a                  JMP loc_4ac9         ; Continue execution @ $4ac9 [loc_4ac9]

4cbf: e1        dat_4cbf        .BYTE $e1
4cc0: 4b        dat_4cc0        .BYTE $4b
4cc1: f4 4b                     .BYTE $f4,$4b     ; .K
4cc3: 59 4c 6a                  EOR $6a4c,Y       ; YLj
4cc6: 4c 9c 4c                  JMP loc_4c9c      ; L.L
4cc9: 9b                        .BYTE $9b         ; .
4cca: 4c 9b 4c                  JMP bad_4c9b      ; L.L
4ccd: 9b                        .BYTE $9b         ; .
4cce: 4c 85 4c                  JMP bad_4c85      ; L.L
4cd1: 20 e8 4e                  JSR bad_4ee8      ;  .N
4cd4: a9 ff                     LDA #$ff          ; ..
4cd6: 85 4a                     STA CKEY          ; .J

4cd8: a0 00     loc_4cd8        LDY #$00             ;
4cda: b1 43                     LDA (ZBUFP),Y        ;
4cdc: d0 03                     BNE loc_4ce1         ;
4cde: 4c 92 4d                  JMP loc_4d92         ; Return to caller
4ce1: a0 01     loc_4ce1        LDY #$01             ;
4ce3: b1 43                     LDA (ZBUFP),Y        ;
4ce5: 10 02                     BPL loc_4ce9         ;
4ce7: 85 4a                     STA CKEY             ;
4ce9: a0 02     loc_4ce9        LDY #$02             ;
4ceb: b1 43                     LDA (ZBUFP),Y        ;
4ced: 29 20                     AND #$20             ;
4cef: f0 06                     BEQ loc_4cf7         ;
4cf1: 25 4c                     AND DSTAT            ;
4cf3: d0 08                     BNE loc_4cfd         ;
4cf5: f0 0e                     BEQ loc_4d05         ;
4cf7: a5 4c     loc_4cf7        LDA DSTAT            ;
4cf9: 29 20                     AND #$20             ;
4cfb: d0 08                     BNE loc_4d05         ;
4cfd: b1 43     loc_4cfd        LDA (ZBUFP),Y        ;
4cff: 25 4c     loc_4cff        AND DSTAT            ;
4d01: c5 4c                     CMP DSTAT            ;
4d03: f0 03                     BEQ loc_4d08         ;
4d05: 4c 79 4d  loc_4d05        JMP loc_4d79         ;
4d08: b1 43     loc_4d08        LDA (ZBUFP),Y        ;
4d0a: 10 05                     BPL loc_4d11         ;
4d0c: 20 d4 4d                  JSR loc_4dd4         ;
4d0f: 30 09                     BMI loc_4d1a         ;
4d11: a0 00     loc_4d11        LDY #$00             ;
4d13: b1 43                     LDA (ZBUFP),Y        ;
4d15: 20 b0 49                  JSR loc_49b0         ;
4d18: 10 0f                     BPL loc_4d29         ;
4d1a: a5 4a     loc_4d1a        LDA CKEY             ;
4d1c: 10 03                     BPL loc_4d21         ;
4d1e: 4c 92 4d                  JMP loc_4d92         ; Return to caller
4d21: 85 49     loc_4d21        STA ERRNO            ;
4d23: 20 01 4a                  JSR loc_4a01         ;
4d26: 4c 92 4d                  JMP loc_4d92         ; Return to caller
4d29: a0 01     loc_4d29        LDY #$01             ;
4d2b: 24 4a                     BIT CKEY             ;
4d2d: 30 04                     BMI loc_4d33         ;
4d2f: b1 43                     LDA (ZBUFP),Y        ;
4d31: 10 04                     BPL loc_4d37         ;
4d33: a5 49     loc_4d33        LDA ERRNO            ;
4d35: 85 4a                     STA CKEY             ;
4d37: a5 4a     loc_4d37        LDA CKEY             ;
4d39: 91 3d                     STA (dat_003d_L),Y   ;
4d3b: 88                        DEY                  ;
4d3c: b1 3d                     LDA (dat_003d_L),Y   ;
4d3e: c9 e0                     CMP #$e0             ;
4d40: b0 11                     BCS loc_4d53         ;
4d42: a0 0f                     LDY #$0f             ;
4d44: a5 4b                     LDA CASSBT           ;
4d46: 91 43                     STA (ZBUFP),Y        ;
4d48: a0 02                     LDY #$02             ;
4d4a: b1 43                     LDA (ZBUFP),Y        ;
4d4c: 0a                        ASL                  ;
4d4d: 10 04                     BPL loc_4d53         ;
4d4f: a0 0f                     LDY #$0f             ;
4d51: 91 43                     STA (ZBUFP),Y        ;
4d53: a0 00     loc_4d53        LDY #$00             ;
4d55: b1 43                     LDA (ZBUFP),Y        ;
4d57: a0 0f                     LDY #$0f             ;
4d59: c9 f0                     CMP #$f0             ;
4d5b: 90 02                     BCC loc_4d5f         ;
4d5d: a0 1f                     LDY #$1f             ;
4d5f: b1 43     loc_4d5f        LDA (ZBUFP),Y        ;
4d61: 91 3d                     STA (dat_003d_L),Y   ;
4d63: 88                        DEY                  ;
4d64: c0 02                     CPY #$02             ;
4d66: b0 f7                     BCS loc_4d5f         ;
4d68: a0 05                     LDY #$05             ;
4d6a: b1 3d                     LDA (dat_003d_L),Y   ;
4d6c: d0 0b                     BNE loc_4d79         ;
4d6e: 88                        DEY                  ;
4d6f: b1 3d                     LDA (dat_003d_L),Y   ;
4d71: c9 01                     CMP #$01             ;
4d73: d0 04                     BNE loc_4d79         ;
4d75: a9 00                     LDA #$00             ;
4d77: 85 50                     STA TEMP             ;
4d79: a2 10     loc_4d79        LDX #$10             ;
4d7b: a0 00                     LDY #$00             ;
4d7d: b1 43                     LDA (ZBUFP),Y        ;
4d7f: c9 f0                     CMP #$f0             ;
4d81: 90 02                     BCC loc_4d85         ;
4d83: a2 20                     LDX #$20             ;
4d85: 8a        loc_4d85        TXA                  ;
4d86: 18                        CLC                  ;
4d87: 65 43                     ADC ZBUFP            ;
4d89: 85 43                     STA ZBUFP            ;
4d8b: 90 02                     BCC loc_4d8f         ;
4d8d: e6 44                     INC ZBUFP+1          ;
4d8f: 4c d8 4c  loc_4d8f        JMP loc_4cd8         ;
4d92: 60        loc_4d92        RTS                  ;

4d93: 85 4c     sub_4d93        STA DSTAT            ;
4d95: a9 00                     LDA #$00             ;
4d97: 85 3d                     STA dat_003d_L       ;
4d99: a9 65                     LDA #$65             ;
4d9b: 85 3e                     STA FTYPE            ;
4d9d: a2 00                     LDX #$00             ;
4d9f: 86 49                     STX ERRNO            ;
4da1: a0 00     loc_4da1        LDY #$00             ;
4da3: b1 3d                     LDA (dat_003d_L),Y   ;
4da5: c9 81                     CMP #$81             ;
4da7: 90 17                     BCC loc_4dc0         ;
4da9: c9 e0                     CMP #$e0             ;
4dab: b0 13                     BCS loc_4dc0         ;
4dad: a0 0f                     LDY #$0f             ;
4daf: b1 3d                     LDA (dat_003d_L),Y   ;
4db1: c5 4b                     CMP CASSBT           ;
4db3: d0 0b                     BNE loc_4dc0         ;
4db5: a0 02                     LDY #$02             ;
4db7: b1 3d                     LDA (dat_003d_L),Y   ;
4db9: 25 4c                     AND DSTAT            ;
4dbb: f0 03                     BEQ loc_4dc0         ;
4dbd: 20 01 4a                  JSR loc_4a01         ;
4dc0: a5 3d     loc_4dc0        LDA dat_003d_L       ;
4dc2: 18                        CLC                  ;
4dc3: 69 10                     ADC #$10             ;
4dc5: 85 3d                     STA dat_003d_L       ;
4dc7: 90 02                     BCC loc_4dcb         ;
4dc9: e6 3e                     INC FTYPE            ;
4dcb: e6 49     loc_4dcb        INC ERRNO            ;
4dcd: a6 49                     LDX ERRNO            ;
4dcf: e0 40                     CPX #$40             ;
4dd1: 90 ce                     BCC loc_4da1         ;
4dd3: 60                        RTS                  ; Return to caller

4dd4: a9 00     loc_4dd4        LDA #$00             ;
4dd6: 85 3f                     STA FEOF             ;
4dd8: a9 65                     LDA #$65             ;
4dda: 85 40                     STA FREQ             ;
4ddc: a2 40                     LDX #$40             ;
4dde: a0 00     loc_4dde        LDY #$00             ;
4de0: b1 3f                     LDA (FEOF),Y         ;
4de2: c9 81                     CMP #$81             ;
4de4: 90 11                     BCC loc_4df7         ;
4de6: a0 06                     LDY #$06             ;
4de8: b1 43     loc_4de8        LDA (ZBUFP),Y        ;
4dea: d1 3f                     CMP (FEOF),Y         ;
4dec: d0 09                     BNE loc_4df7         ;
4dee: c8                        INY                  ;
4def: c0 0f                     CPY #$0f             ;
4df1: 90 f5                     BCC loc_4de8         ;
4df3: a9 ff                     LDA #$ff             ;
4df5: 30 0e                     BMI loc_4e05         ;
4df7: a5 3f     loc_4df7        LDA FEOF             ;
4df9: 18                        CLC                  ;
4dfa: 69 10                     ADC #$10             ;
4dfc: 85 3f                     STA FEOF             ;
4dfe: 90 02                     BCC loc_4e02         ;
4e00: e6 40                     INC FREQ             ;
4e02: ca        loc_4e02        DEX                  ;
4e03: d0 d9                     BNE loc_4dde         ;
4e05: 60        loc_4e05        RTS                  ; Return to caller

4e06: 20 74 4b  sub_4e06        JSR sub_4b74         ;
4e09: f0 17                     BEQ loc_4e22         ;
4e0b: a9 04                     LDA #$04             ;
4e0d: 85 4c                     STA DSTAT            ;
4e0f: a5 4c     sub_4e0f        LDA DSTAT            ;
4e11: 29 05                     AND #$05             ;
4e13: f0 0d                     BEQ loc_4e22         ;
4e15: a0 03                     LDY #$03             ;
4e17: b1 41                     LDA (SOUNDR),Y       ;
4e19: f0 07                     BEQ loc_4e22         ;
4e1b: 10 06                     BPL loc_4e23         ;
4e1d: cd 85 63                  CMP CHR_ALIGN        ;
4e20: b0 06                     BCS loc_4e28         ;
4e22: 60        loc_4e22        RTS                  ; Return to caller
4e23: cd 85 63  loc_4e23        CMP CHR_ALIGN        ;
4e26: b0 fa                     BCS loc_4e22         ;
4e28: b1 41     loc_4e28        LDA (SOUNDR),Y       ;
4e2a: 10 1d                     BPL loc_4e49         ;
4e2c: ad 85 63                  LDA CHR_ALIGN        ;
4e2f: 10 0c                     BPL loc_4e3d         ;
4e31: a9 9d                     LDA #$9d             ;
4e33: 8d 2c 50                  STA dat_502c         ;
4e36: a9 4f                     LDA #$4f             ;
4e38: 8d 2d 50                  STA dat_502d         ;
4e3b: d0 27                     BNE loc_4e64         ;
4e3d: a9 e4     loc_4e3d        LDA #$e4             ;
4e3f: 8d 2c 50                  STA dat_502c         ;
4e42: a9 4f                     LDA #$4f             ;
4e44: 8d 2d 50                  STA dat_502d         ;
4e47: d0 1b                     BNE loc_4e64         ;
4e49: ad 85 63  loc_4e49        LDA CHR_ALIGN        ;
4e4c: 30 0c                     BMI loc_4e5a         ;
4e4e: a9 c0                     LDA #$c0             ;
4e50: 8d 2c 50                  STA dat_502c         ;
4e53: a9 4f                     LDA #$4f             ;
4e55: 8d 2d 50                  STA dat_502d         ;
4e58: d0 0a                     BNE loc_4e64         ;
4e5a: a9 05     loc_4e5a        LDA #$05             ;
4e5c: 8d 2c 50                  STA dat_502c         ;
4e5f: a9 50                     LDA #$50             ;
4e61: 8d 2d 50                  STA dat_502d         ;
4e64: 18        loc_4e64        CLC                  ;
4e65: a9 06                     LDA #$06             ;
4e67: 65 41                     ADC SOUNDR           ;
4e69: 8d 2a 50                  STA dat_502a         ;
4e6c: a5 42                     LDA CRITIC           ;
4e6e: 69 00                     ADC #$00             ;
4e70: 8d 2b 50                  STA dat_502b         ;
4e73: a9 7d                     LDA #$7d             ; Set ???
4e75: 85 16                     STA addr_0016_L      ;     address
4e77: a9 4f                     LDA #$4f             ;     to
4e79: 85 17                     STA addr_0016_H      ;     $4f7d [str_ITM_SCREAMS]
4e7b: 20 a5 3c                  JSR sub_3ca5         ;
4e7e: 20 b0 2b                  JSR sub_2bb0         ;
4e81: 20 c2 3c                  JSR sub_3cc2         ;
4e84: a5 4c                     LDA DSTAT            ;
4e86: 48                        PHA                  ; Preserve value of A
4e87: 09 20                     ORA #$20             ;
4e89: 20 cf 4c                  JSR loc_4ccf         ;
4e8c: 68                        PLA                  ; Restore previous value of A
4e8d: 85 4c                     STA DSTAT            ;
4e8f: 60                        RTS                  ; Return to caller

4e90: a2 0f     sub_4e90        LDX #$0f             ;
4e92: a5 4b     loc_4e92        LDA CASSBT           ;
4e94: dd d4 64                  CMP $64d4,X          ;
4e97: d0 05                     BNE loc_4e9e         ;
4e99: a9 00                     LDA #$00             ;
4e9b: 9d 94 64                  STA $6494,X          ;
4e9e: ca        loc_4e9e        DEX                  ;
4e9f: 10 f1                     BPL loc_4e92         ;
4ea1: 60                        RTS                  ; Return to caller

4ea2: a2 09     sub_4ea2        LDX #$09             ;
4ea4: a5 4b     loc_4ea4        LDA CASSBT           ;
4ea6: dd 9c 63                  CMP $639c,X          ;
4ea9: d0 05                     BNE loc_4eb0         ;
4eab: a9 ff                     LDA #$ff             ;
4ead: 9d 9c 63                  STA $639c,X          ;
4eb0: ca        loc_4eb0        DEX                  ;
4eb1: 10 f1                     BPL loc_4ea4         ;
4eb3: 60                        RTS                  ; Return to caller

4eb4: a0 09     sub_4eb4        LDY #$09             ;
4eb6: c9 80     loc_4eb6        CMP #$80             ;
4eb8: b0 08                     BCS loc_4ec2         ;
4eba: d9 9c 63                  CMP $639c,Y          ;
4ebd: f0 04                     BEQ loc_4ec3         ;
4ebf: 88                        DEY                  ;
4ec0: 10 f4                     BPL loc_4eb6         ;
4ec2: 18        loc_4ec2        CLC                  ;
4ec3: 60        loc_4ec3        RTS                  ; Return to caller

4ec4: 20 e8 4e  sub_4ec4        JSR sub_4ee8         ;
4ec7: a0 00     loc_4ec7        LDY #$00             ;
4ec9: b1 43                     LDA (ZBUFP),Y        ;
4ecb: f0 14                     BEQ loc_4ee1         ;
4ecd: a2 10                     LDX #$10             ;
4ecf: c9 f0                     CMP #$f0             ;
4ed1: 90 02                     BCC loc_4ed5         ;
4ed3: a2 20                     LDX #$20             ;
4ed5: 8a        loc_4ed5        TXA                  ;
4ed6: 18                        CLC                  ;
4ed7: 65 43                     ADC ZBUFP            ;
4ed9: 85 43                     STA ZBUFP            ;
4edb: 90 02                     BCC loc_4edf         ;
4edd: e6 44                     INC ZBUFP+1          ;
4edf: d0 e6     loc_4edf        BNE loc_4ec7         ;
4ee1: e6 43     loc_4ee1        INC ZBUFP            ;
4ee3: d0 02                     BNE loc_4ee7         ;
4ee5: e6 44                     INC ZBUFP+1          ;
4ee7: 60        loc_4ee7        RTS                  ; Return to caller

4ee8: a5 4b     sub_4ee8        LDA CASSBT           ;
4eea: 20 74 4b                  JSR sub_4b74         ;
4eed: a0 05                     LDY #$05             ;
4eef: 18                        CLC                  ;
4ef0: b1 41                     LDA (SOUNDR),Y       ;
4ef2: 65 41                     ADC SOUNDR           ;
4ef4: 85 43                     STA ZBUFP            ;
4ef6: a5 42                     LDA CRITIC           ;
4ef8: 69 00                     ADC #$00             ;
4efa: 85 44                     STA ZBUFP+1          ;
4efc: 60                        RTS                  ; Return to caller

4efd: ad 90 63  sub_4efd        LDA CHR_LIT_TORCH_FLAG ;
4f00: f0 03                     BEQ loc_4f05         ;
4f02: ce 90 63                  DEC CHR_LIT_TORCH_FLAG ;
4f05: a0 00     loc_4f05        LDY #$00             ;
4f07: b1 41                     LDA (SOUNDR),Y       ;
4f09: 29 80                     AND #$80             ;
4f0b: 48                        PHA                  ;
4f0c: a5 4b                     LDA CASSBT           ;
4f0e: a2 09                     LDX #$09             ;
4f10: dd 9c 63  loc_4f10        CMP $639c,X          ;
4f13: f0 03                     BEQ loc_4f18         ;
4f15: ca                        DEX                  ;
4f16: 10 f8                     BPL loc_4f10         ;
4f18: a0 0f     loc_4f18        LDY #$0f             ;
4f1a: d9 d4 64  loc_4f1a        CMP $64d4,Y          ;
4f1d: f0 03                     BEQ loc_4f22         ;
4f1f: 88                        DEY                  ;
4f20: 10 f8                     BPL loc_4f1a         ;
4f22: 8a        loc_4f22        TXA                  ;
4f23: 48                        PHA                  ;
4f24: 98                        TYA                  ;
4f25: 48                        PHA                  ;
4f26: a5 4b                     LDA CASSBT           ;
4f28: 20 c9 4a                  JSR loc_4ac9         ;
4f2b: a2 4f                     LDX #$4f             ;
4f2d: a0 5d                     LDY #$5d             ;
4f2f: 20 4d 4b                  JSR loc_4b4d         ;
4f32: 68                        PLA                  ;
4f33: aa                        TAX                  ;
4f34: 30 16                     BMI loc_4f4c         ;
4f36: a5 4b                     LDA CASSBT           ;
4f38: 9d d4 64                  STA $64d4,X          ;
4f3b: ad 13 63                  LDA CHR_LOC_X        ;
4f3e: 9d a4 64                  STA $64a4,X          ;
4f41: ad 14 63                  LDA CHR_LOC_Y        ;
4f44: 9d b4 64                  STA $64b4,X          ;
4f47: a9 02                     LDA #$02             ;
4f49: 9d 94 64                  STA $6494,X          ;
4f4c: 68        loc_4f4c        PLA                  ;
4f4d: aa                        TAX                  ;
4f4e: 30 05                     BMI loc_4f55         ;
4f50: a5 4b                     LDA CASSBT           ;
4f52: 9d 9c 63                  STA $639c,X          ;
4f55: 68        loc_4f55        PLA                  ;
4f56: a0 00                     LDY #$00             ;
4f58: 11 41                     ORA (SOUNDR),Y       ;
4f5a: 91 41                     STA (SOUNDR),Y       ;
4f5c: 60                        RTS                  ; Return to caller

4f5d: 03                        .BYTE $03         ; .
4f5e: 20 00 00                  JSR $00           ;  ..
4f61: 02 0c 73 74               .BYTE $02,$0c,$73,$74  ; ..st
4f65: 69 63                     ADC #$63          ; ic
4f67: 6b                        .BYTE $6b         ; k
4f68: 00                        BRK               ; .
4f69: 00                        BRK               ; .
4f6a: ff                        .BYTE $ff         ; .
4f6b: 00                        BRK               ; .
4f6c: 14                        .BYTE $14         ; .
4f6d: 00                        BRK               ; .
4f6e: 00                        BRK               ; .
4f6f: 00                        BRK               ; .
4f70: 00                        BRK               ; .
4f71: 00                        BRK               ; .
4f72: 00                        BRK               ; .
4f73: 00                        BRK               ; .
4f74: 00                        BRK               ; .
4f75: 00                        BRK               ; .
4f76: 00                        BRK               ; .
4f77: 04                        .BYTE $04         ; .
4f78: 01 09                     ORA (dat_0009_L,X); ..
4f7a: 09 82                     ORA #$82          ; ..
4f7c: 01
4f7d: a6       str_ITM_SCREAMS  ORA ($a6,X)       ; ..
4f7e: 00                        BRK               ; .
4f7f: 00                        BRK               ; .
4f80: a5 54                     LDA ROWCRS        ; .T
4f82: 68                        PLA               ; h
4f83: 65 0d                     ADC DOSINI+1      ; e.
4f85: a5 b4                     LDA $b4           ; ..
4f87: 2a                        ROL               ; *
4f88: 50 27                     BVC bad_4fb1      ; P'
4f8a: 0d a5 73                  ORA $73a5         ; ..s
4f8d: 63 72                     .BYTE $63,$72     ; cr
4f8f: 65 61                     ADC NEWCOL        ; ea
4f91: 6d 73 3a                  ADC bad_3a73      ; ms:
4f94: 0d 0d a5                  ORA $a50d         ; ...
4f97: b4 2c                     LDY dat_002c,X    ; .,
4f99: 50 28                     BVC bad_4fc3      ; P(
4f9b: 0d ff                                       ; ..

4f9d: 22        str_BTR_THAN_U  ORA bad_22ff      ; "
4f9e: 49 20                     EOR #$20          ; I
4fa0: 77                        .BYTE $77         ; w
4fa1: 61 73                     ADC (COLAC+1,X)   ; as
4fa3: 20 6d 65                  JSR $656d         ;  me
4fa6: 61 6e                     ADC (BITMSK,X)    ; an
4fa8: 74                        .BYTE $74         ; t
4fa9: 20 66 6f                  JSR $6f66         ;  fo
4fac: 72                        .BYTE $72         ; r
4fad: 20 62 65                  JSR $6562         ;  be
4fb0: 74                        .BYTE $74         ; t
4fb1: 74                        .BYTE $74         ; t
4fb2: 65 72                     ADC COLAC         ; er
4fb4: 20 74 68                  JSR $6874         ;  th
4fb7: 61 6e                     ADC (BITMSK,X)    ; an
4fb9: 20 79 6f                  JSR $6f79         ;  yo
4fbc: 75 21                     ADC dat_0021,X    ; u!
4fbe: 22                        .BYTE $22         ; "
4fbf: 00                        BRK               ; .

4fc0: 22        str_EVL_THAN_U  .BYTE $22         ; "
4fc1: 59 6f 75                  EOR $756f,Y       ; You
4fc4: 72                        .BYTE $72         ; r
4fc5: 20 65 76                  JSR $7665         ;  ev
4fc8: 69 6c                     ADC #$6c          ; il
4fca: 20 63 61                  JSR loc_6163      ;  ca
4fcd: 6e 6e 6f                  ROR $6f6e         ; nno
4fd0: 74                        .BYTE $74         ; t
4fd1: 20 63 6f                  JSR $6f63         ;  co
4fd4: 6d 70 61                  ADC loc_6170      ; mpa
4fd7: 72                        .BYTE $72         ; r
4fd8: 65 20                     ADC dat_0020      ; e
4fda: 74 6f                     .BYTE $74,$6f     ; to
4fdc: 20 6d 69                  JSR $696d         ;  mi
4fdf: 6e 65 21                  ROR loc_2165      ; ne!
4fe2: 22                        .BYTE $22         ; "
4fe3: 00                        BRK               ; .

4fe4: 22 52     str_RELEASE_ME  .BYTE $22,$52     ; "R
4fe6: 65 6c                     ADC BUFSTR        ; el
4fe8: 65 61                     ADC NEWCOL        ; ea
4fea: 73                        .BYTE $73         ; s
4feb: 65 20                     ADC dat_0020      ; e
4fed: 6d 65 20                  ADC loc_2065_bad  ; me
4ff0: 66 6f                     ROR SHFAMT        ; fo
4ff2: 75 6c                     ADC BUFSTR,X      ; ul
4ff4: 20 6d 6f                  JSR $6f6d         ;  mo
4ff7: 72 74                     .BYTE $72,$74     ; rt
4ff9: 61 6c                     ADC (BUFSTR,X)    ; al
4ffb: 20 6f 72                  JSR $726f         ;  or
4ffe: 20 70 61                  JSR $6170         ;  pa
5001: 79 21 22                  ADC bad_2221,Y    ; y!"
5004: 00                        BRK               ; .

5005: 22        str_DO_GOODER   .BYTE $22         ; "
5006: 4d 69 73                  EOR $7369         ; Mis
5009: 65 72                     ADC COLAC         ; er
500b: 61 62                     ADC (NEWCOL+1,X)  ; ab
500d: 6c 65 20                  JMP (loc_2065_bad); le
5010: 64 6f                     .BYTE $64,$6f     ; do
5012: 2d 67 6f                  AND $6f67         ; -go
5015: 6f 64                     .BYTE $6f,$64     ; od
5017: 65 72                     ADC COLAC         ; er
5019: 20 79 6f                  JSR $6f79         ;  yo
501c: 75 20                     ADC dat_0020,X    ; u
501e: 73                        .BYTE $73         ; s
501f: 68                        PLA               ; h
5020: 61 6c                     ADC (BUFSTR,X)    ; al
5022: 6c 20 70                  JMP ($7020)       ; l p
5025: 61 79                     ADC (ROWINC,X)    ; ay
5027: 21 22                     AND (ICCOMZ,X)    ; !"
5029: 00                        BRK               ; .

502a: 00        dat_502a        .BYTE $00            ; .
502b: 00        dat_502b        .BYTE $00            ; .
502c: 00        dat_502c        .BYTE $00            ; .
502d: 00        dat_502d        .BYTE $00            ; .

502e: a2 03     sub_502e        LDX #$03             ;
5030: a9 ff                     LDA #$ff             ;
5032: 9d 46 19  loc_5032        STA dat_1946,X       ;
5035: ca                        DEX                  ;
5036: 10 fa                     BPL loc_5032         ;
5038: a2 07                     LDX #$07             ;
503a: a9 5e     loc_503a        LDA #$5e             ;
503c: 9d 3c 19                  STA loc_193c,X       ;
503f: ca                        DEX                  ;
5040: a9 53                     LDA #$53             ;
5042: 9d 3c 19                  STA loc_193c,X       ;
5045: ca                        DEX                  ;
5046: 10 f2                     BPL loc_503a         ;
5048: 60                        RTS                  ; Return to caller

5049: ad 77 62  loc_5049        LDA loc_6277         ;
504c: cd 76 62                  CMP loc_6276         ;
504f: b0 0b                     BCS loc_505c         ;
5051: a9 09                     LDA #$09             ; Set ???
5053: 85 16                     STA addr_0016_L      ;     address
5055: a9 5e                     LDA #$5e             ;     to
5057: 85 17                     STA addr_0016_H      ;     $5e09 [str_5e09]
5059: 4c 64 50                  JMP loc_5064         ;
505c: a9 41     loc_505c        LDA #$41             ; Set ???
505e: 85 16                     STA addr_0016_L      ;     address
5060: a9 5d                     LDA #$5d             ;     to
5062: 85 17                     STA addr_0016_H      ;     $5d41 [dat_5d41]
5064: ae 4a 19  loc_5064        LDX loc_194a         ;
5067: 20 61 3c                  JSR loc_3c61         ;
506a: a9 77     loc_506a        LDA #$77             ; Set ???
506c: 8d 77 19                  STA cont_addr_1977_L ;     address
506f: a9 50                     LDA #$50             ;     to
5071: 8d 78 19                  STA UNK_MEMREF_HI_1978 ;     $5077 []
5074: 4c f3 2f                  JMP loc_2ff3         ;
5077: a5 31                     LDA CHKSUM           ;
5079: 30 ef                     BMI loc_506a         ;
507b: c9 31                     CMP #$31             ;
507d: 90 08                     BCC loc_5087         ;
507f: c9 35                     CMP #$35             ;
5081: b0 04                     BCS loc_5087         ;
5083: e9 30                     SBC #$30             ;
5085: 18                        CLC                  ;
5086: 60                        RTS                  ; Return to caller
5087: 20 a5 2b  loc_5087        JSR sub_2ba5         ;  .+
508a: 38                        SEC                  ; 8
508b: 60                        RTS                  ; `
508c: a9 03     loc_508c        LDA #$03             ; ..
508e: 85 06                     STA TRAMSZ           ; ..
5090: a6 06     loc_5090        LDX TRAMSZ           ; ..
5092: bd 46 19                  LDA dat_1946,X       ; .F.
5095: 30 16                     BMI loc_50ad         ; 0.
5097: 20 74 4b                  JSR sub_4b74         ;  tK
509a: a5 06                     LDA TRAMSZ           ; ..
509c: 0a                        ASL                  ; .
509d: a8                        TAY                  ; .
509e: 18                        CLC                  ; .
509f: a9 06                     LDA #$06             ; ..
50a1: 65 41     loc_50a1        ADC SOUNDR           ; eA
50a3: 99 3c 19                  STA loc_193c,Y       ; .<.
50a6: a5 42                     LDA CRITIC           ; .B
50a8: 69 00                     ADC #$00             ; i.
50aa: 99 3d 19                  STA loc_193d,Y       ; .=.
50ad: c6 06     loc_50ad        DEC TRAMSZ           ; ..
50af: 10 df                     BPL loc_5090         ; ..
50b1: 60                        RTS                  ; `
50b2: a9 00     sub_50b2        LDA #$00             ; ..
50b4: 8d 77 62                  STA loc_6277         ; .wb
50b7: 20 2e 50  sub_50b7        JSR sub_502e         ;  .P
50ba: a9 00                     LDA #$00             ; ..
50bc: 8d 78 62                  STA loc_6278         ; .xb
50bf: ad 77 62                  LDA loc_6277         ; .wb
50c2: 8d 7d 62                  STA loc_627d         ; .}b
50c5: cd 76 62                  CMP loc_6276         ; .vb
50c8: b0 25                     BCS loc_50ef         ; .%
50ca: ad 7d 62  loc_50ca        LDA loc_627d         ; .}b
50cd: 0a                        ASL                  ; .
50ce: a8                        TAY                  ; .
50cf: 29 07                     AND #$07             ; ).
50d1: aa                        TAX                  ; .
50d2: b9 0d 5f                  LDA loc_5f0d,Y       ; .._
50d5: 9d 3c 19                  STA loc_193c,X       ; .<.
50d8: b9 0e 5f                  LDA loc_5f0e,Y       ; .._
50db: 9d 3d 19                  STA loc_193d,X       ; .=.
50de: ae 78 62                  LDX loc_6278         ; .xb
50e1: 8a                        TXA                  ; .
50e2: 9d 46 19                  STA dat_1946,X       ; .F.
50e5: ee 7d 62                  INC loc_627d         ; .}b
50e8: 20 98 51                  JSR loc_5198         ;  .Q
50eb: 90 dd                     BCC loc_50ca         ; ..
50ed: b0 6d                     BCS loc_515c         ; .m
50ef: a2 3f     loc_50ef        LDX #$3f             ; .?
50f1: 8e 7a 62                  STX loc_627a         ; .zb
50f4: ed 76 62                  SBC loc_6276         ; .vb
50f7: f0 2c                     BEQ loc_5125         ; .,
50f9: 8d 79 62                  STA loc_6279         ; .yb
50fc: ad 7a 62  loc_50fc        LDA loc_627a         ; .zb
50ff: 20 a1 51                  JSR loc_51a1         ;  .Q
5102: b0 0b                     BCS loc_510f         ; ..
5104: ce 79 62                  DEC loc_6279         ; .yb
5107: d0 06                     BNE loc_510f         ; ..
5109: ce 7a 62                  DEC loc_627a         ; .zb
510c: 4c 25 51                  JMP loc_5125         ; L%Q
510f: ce 7a 62  loc_510f        DEC loc_627a         ; .zb
5112: 10 e8                     BPL loc_50fc         ; ..
5114: ad 77 62  loc_5114        LDA loc_6277         ;
5117: 0d 76 62                  ORA loc_6276         ;
511a: f0 40                     BEQ loc_515c         ;
511c: ad 70 54  loc_511c        LDA dat_5470         ;
511f: 8d 77 62                  STA loc_6277         ;
5122: 4c b7 50                  JMP sub_50b7         ;
5125: ad 7a 62  loc_5125        LDA loc_627a         ;
5128: 30 ea                     BMI loc_5114         ;
512a: 20 a1 51                  JSR loc_51a1         ;
512d: 90 12                     BCC loc_5141         ;
512f: ce 7a 62                  DEC loc_627a         ;
5132: 10 f1                     BPL loc_5125         ;
5134: ad 46 19                  LDA dat_1946         ;
5137: 10 20                     BPL loc_5159         ;
5139: ad 76 62                  LDA loc_6276         ;
513c: f0 1b                     BEQ loc_5159         ;
513e: 4c 1c 51                  JMP loc_511c         ;
5141: ad 7a 62  loc_5141        LDA loc_627a         ;
5144: ac 78 62                  LDY loc_6278         ;
5147: 99 46 19                  STA dat_1946,Y       ;
514a: ce 7a 62                  DEC loc_627a         ;
514d: 30 0a                     BMI loc_5159         ;
514f: ee 78 62                  INC loc_6278         ;
5152: ad 78 62                  LDA loc_6278         ;
5155: c9 04                     CMP #$04             ;
5157: 90 cc                     BCC loc_5125         ;
5159: 20 8c 50  loc_5159        JSR loc_508c         ;
515c: 20 49 50  loc_515c        JSR loc_5049         ;
515f: 90 0d                     BCC loc_516e         ;
5161: c9 46                     CMP #$46             ;
5163: f0 1b                     BEQ loc_5180         ;
5165: c9 42                     CMP #$42             ;
5167: f0 25                     BEQ loc_518e         ;
5169: c9 1b                     CMP #$1b             ;
516b: d0 ef                     BNE loc_515c         ;
516d: 60                        RTS                  ; Return to caller
516e: aa        loc_516e        TAX                  ;
516f: bd 46 19                  LDA dat_1946,X       ;
5172: 30 e8                     BMI loc_515c         ;
5174: ae 77 62                  LDX loc_6277         ;
5177: ec 76 62                  CPX loc_6276         ;
517a: b0 02                     BCS loc_517e         ;
517c: 09 80                     ORA #$80             ;
517e: 18        loc_517e        CLC                  ;
517f: 60                        RTS                  ; Return to caller
5180: ad 77 62  loc_5180        LDA loc_6277         ;
5183: 8d 70 54                  STA dat_5470         ;
5186: 69 03                     ADC #$03             ;
5188: 8d 77 62  loc_5188        STA loc_6277         ;
518b: 4c b7 50                  JMP sub_50b7         ; Continue @ $50b7 [sub_50b7]
518e: ad 77 62  loc_518e        LDA loc_6277         ;
5191: e9 04                     SBC #$04             ;
5193: 10 f3                     BPL loc_5188         ;
5195: 4c b2 50                  JMP sub_50b2         ; Continue @ $50b2 [sub_50b2]
5198: ee 78 62  loc_5198        INC loc_6278         ;
519b: ad 78 62                  LDA loc_6278         ;
519e: c9 04                     CMP #$04             ;
51a0: 60                        RTS                  ; Return to caller
51a1: 20 74 4b  loc_51a1        JSR sub_4b74         ;
51a4: f0 0e                     BEQ loc_51b4         ;
51a6: a0 00                     LDY #$00             ;
51a8: b1 41                     LDA (SOUNDR),Y       ;
51aa: 10 08                     BPL loc_51b4         ;
51ac: 29 07                     AND #$07             ;
51ae: c9 01                     CMP #$01             ;
51b0: f0 02     loc_51b0        BEQ loc_51b4         ;
51b2: 18                        CLC                  ;
51b3: 60                        RTS                  ; Return to caller
51b4: 38        loc_51b4        SEC                  ;
51b5: 60                        RTS                  ; Return to caller
51b6: a9 00     sub_51b6        LDA #$00             ;
51b8: 8d 7f 62                  STA loc_627f         ;
51bb: a9 04                     LDA #$04             ;
51bd: ae 00 76                  LDX $7600            ;
51c0: e0 01                     CPX #$01             ;
51c2: d0 02                     BNE loc_51c6         ;
51c4: a9 00                     LDA #$00             ;
51c6: 8d 76 62  loc_51c6        STA loc_6276         ;
51c9: a9 f0                     LDA #$f0             ; Self-modifying
51cb: 8d b0 51                  STA loc_51b0         ;     code ($f0 = BEQ)
51ce: a9 25                     LDA #$25             ;
51d0: 8d 3a 19                  STA loc_193a         ;
51d3: a9 5f                     LDA #$5f             ;
51d5: 8d 3b 19                  STA loc_193b         ;
51d8: a9 57     loc_51d8        LDA #$57             ;
51da: 8d 44 19                  STA loc_1944         ;
51dd: a9 5f                     LDA #$5f             ;
51df: 8d 45 19                  STA loc_1945         ;
51e2: 20 b2 50                  JSR sub_50b2         ;
51e5: b0 3e                     BCS loc_5225         ;
51e7: c9 80                     CMP #$80             ;
51e9: 90 03                     BCC loc_51ee         ;
51eb: 4c 53 56                  JMP loc_5653         ; Continue @ $5653 [loc_5653]
51ee: 85 4b     loc_51ee        STA CASSBT           ;
51f0: 20 74 4b                  JSR sub_4b74         ;
51f3: 20 c4 4e                  JSR sub_4ec4         ;
51f6: a0 00                     LDY #$00             ;
51f8: b1 41                     LDA (SOUNDR),Y       ;
51fa: 29 07                     AND #$07             ;
51fc: 8d 7e 62                  STA loc_627e         ;
51ff: aa                        TAX                  ;
5200: bd 29 52                  LDA tbl_5229_H,X     ; Read the corresponding entry from
5203: 48                        PHA                  ;     tbl_5231_L/tbl_5229_H
5204: bd 31 52                  LDA tbl_5231_L,X     ;     and push it
5207: 48                        PHA                  ;     onto the stack
5208: 60                        RTS                  ; Indirectly jump to address on stack + 1


5209: a5 4b     loc_5209        LDA CASSBT           ;
520b: 20 74 4b                  JSR sub_4b74         ;
520e: f0 15                     BEQ loc_5225         ;
5210: a5 4b                     LDA CASSBT           ;
5212: 20 86 4b                  JSR loc_4b86         ;
5215: ad 7e 62                  LDA loc_627e         ;
5218: 8d 61 19                  STA loc_1961         ;
521b: 2c 7f 62                  BIT loc_627f         ;
521e: 10 05                     BPL loc_5225         ;
5220: a5 4b                     LDA CASSBT           ;
5222: 20 c9 4a                  JSR loc_4ac9         ;
5225: ce 5f 19  loc_5225        DEC UNK_BYTE_195F    ;
5228: 60                        RTS                  ; Return to caller

5229: 52 52 54 54 54 55 55 56  tbl_5229_H  .BYTE $52,$52,$54,$54,$54,$55,$55,$56
5231: 38 c2 0e a9 ed 04 6a 31  tbl_5231_L  .BYTE $38,$c2,$0e,$a9,$ed,$04,$6a,$31

; Indirectly called using lookup tables tbl_5231_L/tbl_5229_H
5239: a0 00     cont_5239       LDY #$00             ;
523b: b1 41                     LDA (SOUNDR),Y       ;
523d: 29 78                     AND #$78             ;
523f: d0 03                     BNE loc_5244         ;
5241: 4c 25 52                  JMP loc_5225         ; Continue @ $5225 [loc_5225]
5244: a2 02     loc_5244        LDX #$02             ; Set X = 2 (3 iterations)
5246: dd 60 52  loc_5246        CMP tbl_5260,X       ;
5249: f0 06                     BEQ loc_5251         ;
524b: ca                        DEX                  ; Subtract 1 from X
524c: 10 f8                     BPL loc_5246         ; Repeat while X >= 0
524e: 4c 09 52                  JMP loc_5209         ; Continue @ $5209 [loc_5209]
5251: bd 5d 52  loc_5251        LDA tbl_525d_H,X     ; Read the corresponding entry from
5254: 48                        PHA                  ;     tbl_525a_L/tbl_525d_H
5255: bd 5a 52                  LDA tbl_525a_L,X     ;     and push it
5258: 48                        PHA                  ;     onto the stack
5259: 60                        RTS                  ; Indirectly jump to address on stack + 1
                                                     ;     $5263 [cont_5263]
                                                     ;     $5282 [cont_5282]
                                                     ;     $5293 [cont_5293]

525a: 62 81 92  tbl_525a_L      .BYTE $62,$81,$92    ; 3 byte table with LSB of address
525d: 52 52 52  tbl_525d_H      .BYTE $52,$52,$52    ; 3 byte table with MSB of address
5260: 08 10 18  tbl_5260        .BYTE $08,$10,$18    ; 3 byte table of data

; Indirectly called using lookup tables tbl_525a_L/tbl_525d_H
5263: ad be 63  cont_5263       LDA INV_CRYSTALS     ;
5266: f0 06                     BEQ loc_526e         ;
5268: ce be 63                  DEC INV_CRYSTALS     ;
526b: 4c 09 52                  JMP loc_5209         ; Continue @ 5209 [loc_5209]
526e: a9 02     loc_526e        LDA #$02             ; Set ???
5270: 85 16                     STA addr_0016_L      ;     address
5272: a9 61                     LDA #$61             ;     to
5274: 85 17                     STA addr_0016_H      ;     $6102 []
5276: ae 4a 19                  LDX loc_194a         ;
5279: 20 5c 3c                  JSR sub_3c5c         ;
527c: 20 fa 2b                  JSR loc_2bfa         ;
527f: 4c 25 52                  JMP loc_5225         ; Continue @ $5225 [loc_5225]

; Indirectly called using lookup tables tbl_525a_L/tbl_525d_H
5282: a0 00     cont_5282       LDY #$00             ;
5284: b1 43                     LDA (ZBUFP),Y        ;
5286: 38                        SEC                  ;
5287: e9 01                     SBC #$01             ;
5289: 91 43                     STA (ZBUFP),Y        ;
528b: d0 03                     BNE loc_5290         ;
528d: ce 7f 62                  DEC loc_627f         ;
5290: 4c 09 52  loc_5290        JMP loc_5209         ; Continue @ 5209 [loc_5209]

; Indirectly called using lookup tables tbl_525a_L/tbl_525d_H
5293: a0 01     cont_5293       LDY #$01             ;
5295: b1 43                     LDA (ZBUFP),Y        ;
5297: f0 0a                     BEQ loc_52a3         ;
5299: 38                        SEC                  ;
529a: e9 01                     SBC #$01             ;
529c: 91 43                     STA (ZBUFP),Y        ;
529e: d0 03                     BNE loc_52a3         ;
52a0: ce 7f 62                  DEC loc_627f         ;
52a3: c8        loc_52a3        INY                  ;
52a4: b1 43                     LDA (ZBUFP),Y        ;
52a6: c9 01                     CMP #$01             ;
52a8: f0 13                     BEQ loc_52bd         ;
52aa: c8                        INY                  ;
52ab: b1 43                     LDA (ZBUFP),Y        ;
52ad: c9 08                     CMP #$08             ;
52af: d0 09                     BNE loc_52ba         ;
52b1: a0 00                     LDY #$00             ;
52b3: b1 43                     LDA (ZBUFP),Y        ;
52b5: 85 51                     STA HOLD1            ;
52b7: 20 b7 55                  JSR loc_55b7         ;
52ba: 4c 09 52  loc_52ba        JMP loc_5209         ; Continue @ 5209 [loc_5209]
52bd: c8        loc_52bd        INY                  ;
52be: b1 43                     LDA (ZBUFP),Y        ;
52c0: 4c f3 53                  JMP loc_53f3         ; Continue @ 53f3 [loc_53f3]

; Indirectly called using lookup tables tbl_5231_L/tbl_5229_H
52c3: a9 00     cont_52c3       LDA #$00             ;
52c5: 8d 7f 62                  STA loc_627f         ;
52c8: 8d 61 19                  STA loc_1961         ;
52cb: a5 4b                     LDA CASSBT           ;
52cd: 8d 7b 62                  STA loc_627b         ;
52d0: a5 43                     LDA ZBUFP            ;
52d2: 85 47                     STA ZSBA             ;
52d4: a5 44                     LDA ZBUFP+1          ;
52d6: 85 48                     STA ZSBA+1           ;
52d8: a0 02                     LDY #$02             ;
52da: b1 47     loc_52da        LDA (ZSBA),Y         ;
52dc: 99 80 62                  STA loc_6280,Y       ;
52df: 88                        DEY                  ;
52e0: 10 f8                     BPL loc_52da         ;
52e2: a9 3f                     LDA #$3f             ;
52e4: 85 4b                     STA CASSBT           ;
52e6: a5 4b     loc_52e6        LDA CASSBT           ;
52e8: 20 74 4b                  JSR sub_4b74         ;
52eb: f0 13                     BEQ loc_5300         ;
52ed: a0 00                     LDY #$00             ;
52ef: b1 41                     LDA (SOUNDR),Y       ;
52f1: c9 82                     CMP #$82             ;
52f3: d0 0b                     BNE loc_5300         ;
52f5: 20 c4 4e                  JSR sub_4ec4         ;
52f8: a9 01                     LDA #$01             ;
52fa: a0 00                     LDY #$00             ;
52fc: d1 43                     CMP (ZBUFP),Y        ;
52fe: f0 06                     BEQ loc_5306         ;
5300: c6 4b     loc_5300        DEC CASSBT           ;
5302: 10 e2                     BPL loc_52e6         ;
5304: 30 22                     BMI loc_5328         ;
5306: a0 01     loc_5306        LDY #$01             ;
5308: 38                        SEC                  ;
5309: b1 43                     LDA (ZBUFP),Y        ;
530b: ed 80 62                  SBC loc_6280         ;
530e: 90 08                     BCC loc_5318         ;
5310: 91 43                     STA (ZBUFP),Y        ;
5312: 20 71 54                  JSR sub_5471         ;
5315: 4c 42 53                  JMP loc_5342         ; Continue @ 5342 [loc_5342]
5318: 38        loc_5318        SEC                  ;
5319: ad 80 62                  LDA loc_6280         ;
531c: f1 43                     SBC (ZBUFP),Y        ;
531e: 8d 80 62                  STA loc_6280         ;
5321: a9 00                     LDA #$00             ;
5323: 91 43                     STA (ZBUFP),Y        ;
5325: 20 71 54                  JSR sub_5471         ;
5328: 38        loc_5328        SEC                  ;
5329: ad 9b 63                  LDA CHR_ENERGY       ;
532c: ed 80 62                  SBC loc_6280         ;
532f: b0 0e                     BCS loc_533f         ;
5331: a2 45                     LDX #$45             ;
5333: 38                        SEC                  ;
5334: ad 80 62                  LDA loc_6280         ;
5337: ed 9b 63                  SBC CHR_ENERGY       ;
533a: 20 66 2e                  JSR sub_2e66         ;
533d: a9 00                     LDA #$00             ;
533f: 8d 9b 63  loc_533f        STA CHR_ENERGY       ;
5342: ad 88 63  loc_5342        LDA $6388            ;
5345: 29 04     loc_5345        AND #$04             ;
5347: d0 12                     BNE loc_535b         ;
5349: ad 4d 19                  LDA ZONE_C_BF_LITE   ;
534c: 29 02                     AND #$02             ;
534e: f0 0b                     BEQ loc_535b         ;
5350: a9 5a                     LDA #$5a             ; Set ???
5352: 85 16                     STA addr_0016_L      ;     address
5354: a9 62                     LDA #$62             ;     to
5356: 85 17                     STA addr_0016_H      ;     $625a [str_625a]
5358: 4c e7 53                  JMP loc_53e7         ; Continue @ $53e7 [loc_53e7]
535b: a9 64     loc_535b        LDA #$64             ;
535d: 20 6b 2b                  JSR loc_2b6b         ;
5360: cd 81 62                  CMP loc_6281         ;
5363: b0 65                     BCS loc_53ca         ;
5365: ad 0a d2                  LDA RANDOM           ;
5368: 8d 72 53                  STA loc_5372         ;
536b: ad 69 63                  LDA CHR_WIS_EFFECTIVE ;
536e: 4a                        LSR                  ;
536f: 69 20                     ADC #$20             ;
5371: c9 ff                     CMP #$ff             ;
5373: 90 1b                     BCC loc_5390         ;
5375: ac 00 76                  LDY $7600            ;
5378: 88                        DEY                  ;
5379: f0 07                     BEQ loc_5382         ;
537b: ad 0a d2                  LDA RANDOM           ;
537e: c9 40                     CMP #$40             ;
5380: b0 0e                     BCS loc_5390         ;
5382: a9 01     loc_5382        LDA #$01             ;
5384: a8                        TAY                  ;
5385: 18                        CLC                  ;
5386: 71 47                     ADC (ZSBA),Y         ;
5388: c9 60                     CMP #$60             ;
538a: 90 02                     BCC loc_538e         ;
538c: a9 5f                     LDA #$5f             ;
538e: 91 47     loc_538e        STA (ZSBA),Y         ;
5390: ad 7b 62  loc_5390        LDA loc_627b         ;
5393: 85 4b                     STA CASSBT           ;
5395: 20 74 4b                  JSR sub_4b74         ;
5398: 18                        CLC                  ;
5399: a5 41                     LDA SOUNDR           ;
539b: 69 06                     ADC #$06             ;
539d: 8d 3c 19                  STA loc_193c         ;
53a0: a5 42                     LDA CRITIC           ;
53a2: 69 00                     ADC #$00             ;
53a4: 8d 3d 19                  STA loc_193d         ;
53a7: a9 e1                     LDA #$e1             ; Set ???
53a9: 85 16                     STA addr_0016_L      ;     address
53ab: a9 61                     LDA #$61             ;     to
53ad: 85 17                     STA addr_0016_H      ;     $61e1 []
53af: ae 4a 19                  LDX loc_194a         ;
53b2: 20 5c 3c                  JSR sub_3c5c         ;
53b5: a9 82     loc_53b5        LDA #$82             ;
53b7: 8d 9c 19                  STA dat_199c         ;
53ba: a9 01                     LDA #$01             ;
53bc: 20 fc 2b                  JSR sub_2bfc         ;
53bf: a0 00                     LDY #$00             ;
53c1: b1 41                     LDA (SOUNDR),Y       ;
53c3: 29 78                     AND #$78             ;
53c5: d0 2c                     BNE loc_53f3         ;
53c7: 4c 09 52                  JMP loc_5209         ; Continue @ $5209 [loc_5209]
53ca: a2 45     loc_53ca        LDX #$45             ;
53cc: ad 82 62                  LDA loc_6282         ;
53cf: 20 66 2e                  JSR sub_2e66         ;
53d2: a9 0d                     LDA #$0d             ; Set ???
53d4: 85 16                     STA addr_0016_L      ;     address
53d6: a9 62                     LDA #$62             ;     to
53d8: 85 17                     STA addr_0016_H      ;     $620d [str_SPEL_FAIL]
53da: ad 82 62                  LDA loc_6282         ;
53dd: f0 08                     BEQ loc_53e7         ;
53df: a9 24                     LDA #$24             ; Set ???
53e1: 85 16                     STA addr_0016_L      ;     address
53e3: a9 62                     LDA #$62             ;     to
53e5: 85 17                     STA addr_0016_H      ;     $6224 [str_SPEL_BKFR]
53e7: ae 4a 19  loc_53e7        LDX loc_194a         ;
53ea: 20 5c 3c                  JSR sub_3c5c         ;
53ed: 20 fa 2b                  JSR loc_2bfa         ;
53f0: 4c 25 52                  JMP loc_5225         ; Continue @ $5225 [loc_5225]
53f3: a2 01     loc_53f3        LDX #$01             ; Set X = 1
53f5: dd 0d 54  loc_53f5        CMP tbl_540d,X       ;
53f8: f0 06                     BEQ loc_5400         ;
53fa: ca                        DEX                  ; Subtract 1 from X
53fb: 10 f8                     BPL loc_53f5         ; Repeat while X >= 0
53fd: 4c 25 52                  JMP loc_5225         ; Continue @ $5225 [loc_5225]
5400: bd 0b 54  loc_5400        LDA tbl_540b_H,X     ; Read the corresponding entry from
5403: 48                        PHA                  ;     tbl_5409_L/tbl_540b_H
5404: bd 09 54                  LDA tbl_5409_L,X     ;     and push it
5407: 48                        PHA                  ;     onto the stack
5408: 60                        RTS                  ; Indirectly jump to address on stack + 1. One of the following:
                                                     ;     $57ed [cont_57ed]
                                                     ;     $5cc5 [cont_5cc5]

5409: ec c4     tbl_5409_L      .BYTE $ec $c4        ; 2 byte table with LSB of address
540b: 57 5c     tbl_540b_H      .BYTE $57 $5c        ; 2 byte table with MSB of address
540d: 08 10     tbl_540d        .BYTE $08 $10        ; 2 byte table of data

; Indirectly called using lookup tables tbl_5231_L/tbl_5229_H
540f: a5 4b     cont_540f       LDA $4b              ;
5411: 8d 7c 62                  STA loc_627c         ;
5414: a5 43                     LDA ZBUFP            ;
5416: 85 07                     STA dat_0007_L       ;
5418: a5 44                     LDA ZBUFP+1          ;
541a: 85 08                     STA dat_0007_H       ;
541c: a0 00                     LDY #$00             ;
541e: b1 07                     LDA (dat_0007_L),Y   ;
5420: c9 01                     CMP #$01             ;
5422: f0 2c                     BEQ loc_5450         ;
5424: ad 9c 63                  LDA $639c            ;
5427: 30 44                     BMI loc_546d         ;
5429: 85 4b                     STA CASSBT           ;
542b: 20 74 4b                  JSR sub_4b74         ;
542e: 20 c4 4e                  JSR sub_4ec4         ;
5431: a0 00                     LDY #$00             ;
5433: b1 43                     LDA (ZBUFP),Y        ;
5435: d1 07                     CMP (dat_0007_L),Y   ;
5437: d0 34                     BNE loc_546d         ;
5439: a0 0c                     LDY #$0c             ;
543b: b1 07     loc_543b        LDA (dat_0007_L),Y   ;
543d: 91 43                     STA (ZBUFP),Y        ;
543f: 88                        DEY                  ;
5440: d0 f9                     BNE loc_543b         ;
5442: 20 71 54                  JSR sub_5471         ;
5445: ad 7c 62                  LDA loc_627c         ;
5448: 85 4b                     STA CASSBT           ;
544a: ce 7f 62                  DEC loc_627f         ;
544d: 4c 09 52                  JMP loc_5209         ; Continue execution @ $5209 [loc_5209]
5450: c8        loc_5450        INY                  ;
5451: b1 07                     LDA (dat_0007_L),Y   ;
5453: c9 63                     CMP #$63             ;
5455: b0 16                     BCS loc_546d         ;
5457: ae be 63                  LDX INV_CRYSTALS     ;
545a: f0 11                     BEQ loc_546d         ;
545c: ce be 63                  DEC INV_CRYSTALS     ;
545f: 18                        CLC                  ;
5460: 69 0a                     ADC #$0a             ;
5462: c9 63                     CMP #$63             ;
5464: 90 02                     BCC loc_5468         ;
5466: a9 63                     LDA #$63             ;
5468: 91 07     loc_5468        STA (dat_0007_L),Y   ;
546a: 20 71 54                  JSR sub_5471         ;
546d: 4c 25 52  loc_546d        JMP loc_5225         ; Continue execution @ $5225 [loc_5225]

5470: 00        dat_5470        .BYTE $00            ;

5471: a0 01     sub_5471        LDY #$01             ;
5473: b1 43                     LDA (ZBUFP),Y        ;
5475: 20 8e 54                  JSR loc_548e         ;
5478: a0 05                     LDY #$05             ;
547a: b1 41                     LDA (SOUNDR),Y       ;
547c: 38                        SEC                  ;
547d: e9 04                     SBC #$04             ;
547f: a8                        TAY                  ;
5480: a5 02                     LDA dat_0002         ;
5482: 09 30                     ORA #$30             ;
5484: 91 41                     STA (SOUNDR),Y       ;
5486: c8                        INY                  ;
5487: a5 03                     LDA dat_0003         ;
5489: 09 30                     ORA #$30             ;
548b: 91 41                     STA (SOUNDR),Y       ;
548d: 60                        RTS                  ; Return to caller
548e: a0 00     loc_548e        LDY #$00             ;
5490: a2 0a                     LDX #$0a             ;
5492: 85 02     loc_5492        STA dat_0002         ;
5494: 86 04                     STX dat_0004         ;
5496: 98                        TYA                  ;
5497: a2 08                     LDX #$08             ;
5499: 06 02     loc_5499        ASL dat_0002         ;
549b: 2a                        ROL                  ;
549c: c5 04                     CMP dat_0004         ;
549e: 90 04                     BCC loc_54a4         ;
54a0: e5 04                     SBC dat_0004         ;
54a2: e6 02                     INC dat_0002         ;
54a4: ca        loc_54a4        DEX                  ;
54a5: d0 f2     loc_54a5        BNE loc_5499         ;
54a7: 85 03                     STA dat_0003         ;
54a9: 60                        RTS                  ; Return to caller

; Indirectly called using lookup tables tbl_5231_L/tbl_5229_H
54aa: 20 ab 57  cont_54aa       JSR loc_57ab         ;
54ad: b0 3c                     BCS loc_54eb         ;
54af: a2 0a     loc_54af        LDX #$0a             ;
54b1: a9 00                     LDA #$00             ;
54b3: 9d d2 63  loc_54b3        STA $63d2,X          ;
54b6: ca                        DEX                  ;
54b7: 10 fa                     BPL loc_54b3         ;
54b9: a9 00                     LDA #$00             ;
54bb: 85 49                     STA ERRNO            ;
54bd: a9 00                     LDA #$00             ;
54bf: 85 3d                     STA dat_003d_L       ;
54c1: a9 65                     LDA #$65             ;
54c3: 85 3e                     STA FTYPE            ;
54c5: a0 00     loc_54c5        LDY #$00             ;
54c7: b1 3d                     LDA (dat_003d_L),Y   ;
54c9: c9 87                     CMP #$87             ;
54cb: d0 03                     BNE loc_54d0         ;
54cd: 20 01 4a                  JSR loc_4a01         ;
54d0: e6 49     loc_54d0        INC ERRNO            ;
54d2: a5 3d                     LDA dat_003d_L       ;
54d4: 18                        CLC                  ;
54d5: 69 10                     ADC #$10             ;
54d7: 85 3d                     STA dat_003d_L       ;
54d9: 90 02                     BCC loc_54dd         ;
54db: e6 3e                     INC FTYPE            ;
54dd: a5 49     loc_54dd        LDA ERRNO            ;
54df: c9 40                     CMP #$40             ;
54e1: 90 e2                     BCC loc_54c5         ;
54e3: 20 35 58                  JSR loc_5835         ;
54e6: b0 03                     BCS loc_54eb         ;
54e8: 4c 09 52                  JMP loc_5209         ;
54eb: 4c 25 52  loc_54eb        JMP loc_5225         ;

; Indirectly called using lookup tables tbl_5231_L/tbl_5229_H
54ee: a0 00     cont_54ee       LDY #$00             ;
54f0: b1 43                     LDA (ZBUFP),Y        ;
54f2: 29 03                     AND #$03             ;
54f4: 18                        CLC                  ;
54f5: 69 02                     ADC #$02             ;
54f7: 8d 83 62                  STA loc_6283         ;
54fa: 20 35 58                  JSR loc_5835         ;
54fd: b0 03                     BCS loc_5502         ;
54ff: 4c 09 52                  JMP loc_5209         ;
5502: 4c 25 52  loc_5502        JMP loc_5225         ;

; Indirectly called using lookup tables tbl_5231_L/tbl_5229_H
5505: a2 00     cont_5505       LDX #$00             ;
5507: bd a2 63  loc_5507        LDA $63a2,X          ;
550a: c9 ff                     CMP #$ff             ;
550c: f0 07                     BEQ loc_5515         ;
550e: e8                        INX                  ;
550f: e0 04                     CPX #$04             ;
5511: 90 f4                     BCC loc_5507         ;
5513: b0 04                     BCS loc_5519         ;
5515: 8a        loc_5515        TXA                  ;
5516: 4c 5a 55                  JMP loc_555a         ;
5519: a2 31     loc_5519        LDX #$31             ;
551b: 8e 51 5d                  STX dat_5d51         ;
551e: e8                        INX                  ;
551f: 8e 67 5d                  STX loc_5d67         ;
5522: e8                        INX                  ;
5523: 8e 7d 5d                  STX loc_5d7d         ;
5526: e8                        INX                  ;
5527: 8e 93 5d                  STX loc_5d93         ;
552a: 20 2e 50                  JSR sub_502e         ;
552d: a9 85                     LDA #$85             ;
552f: 8d 3a 19                  STA loc_193a         ;
5532: a9 5f                     LDA #$5f             ;
5534: 8d 3b 19                  STA loc_193b         ;
5537: a9 3d                     LDA #$3d             ;
5539: 8d 44 19                  STA loc_1944         ;
553c: a9 5f                     LDA #$5f             ;
553e: 8d 45 19                  STA loc_1945         ;
5541: a2 03                     LDX #$03             ;
5543: bd a2 63  loc_5543        LDA $63a2,X          ;
5546: 9d 46 19                  STA dat_1946,X       ;
5549: ca                        DEX                  ;
554a: 10 f7                     BPL loc_5543         ;
554c: 20 8c 50                  JSR loc_508c         ;
554f: 20 49 50  loc_554f        JSR loc_5049         ;
5552: 90 06                     BCC loc_555a         ;
5554: c9 1b                     CMP #$1b             ;
5556: f0 10                     BEQ loc_5568         ;
5558: d0 f5                     BNE loc_554f         ;
555a: 18        loc_555a        CLC                  ;
555b: 69 06                     ADC #$06             ;
555d: 8d 83 62                  STA loc_6283         ;
5560: 20 35 58  loc_5560        JSR loc_5835         ;
5563: b0 03                     BCS loc_5568         ;
5565: 4c 09 52                  JMP loc_5209         ;
5568: 4c 25 52  loc_5568        JMP loc_5225         ;

; Indirectly called using lookup tables tbl_5231_L/tbl_5229_H
556b: ce 7f 62  cont_556b       DEC loc_627f         ;
556e: ad 98 63                  LDA CHR_STOMACH      ;
5571: 10 03                     BPL loc_5576         ;
5573: 4c c1 56                  JMP loc_56c1         ;
5576: a9 04     loc_5576        LDA #$04             ;
5578: a0 02                     LDY #$02             ;
557a: 20 d7 56                  JSR loc_56d7         ;
557d: a0 00                     LDY #$00             ;
557f: b1 41                     LDA (SOUNDR),Y       ;
5581: 29 78                     AND #$78             ;
5583: f0 0a                     BEQ loc_558f         ;
5585: a2 00                     LDX #$00             ; Set X = 0 (1 iteration)
5587: dd 9e 55  loc_5587        CMP tbl_559e,X       ;
558a: f0 09                     BEQ loc_5595         ;
558c: ca                        DEX                  ; Subtract 1 from X
558d: 10 f8                     BPL loc_5587         ; Repeat while X >= 0
558f: 20 02 56  loc_558f        JSR sub_5602         ;
5592: 4c 09 52                  JMP loc_5209         ;
5595: bd 9f 55  loc_5595        LDA tbl_559f_H,X     ;
5598: 48                        PHA                  ;
5599: bd a0 55                  LDA tbl_55a0_L,X     ;
559c: 48                        PHA                  ;
559d: 60                        RTS                  ; Indirectly jump to address on stack + 1
                                                     ;     $55a1 [cont_55a1]

559e: 08        tbl_559e        .BYTE $08            ; 1 byte table
559f: 55        tbl_559f_H      .BYTE $55            ; 1 byte table with MSB of address
55a0: a0        tbl_55a0_L      .BYTE $a0            ; 1 byte table with LSB of address

; Indirectly called using lookup tables tbl_55a0_L/tbl_559f_H
55a1: a0 00     cont_55a1       LDY #$00             ;
55a3: b1 43                     LDA (ZBUFP),Y        ;
55a5: aa                        TAX                  ;
55a6: 09 80                     ORA #$80             ;
55a8: 85 51                     STA HOLD1            ;
55aa: 98                        TYA                  ;
55ab: 9d 90 63                  STA CHR_LIT_TORCH_FLAG,X  ; ..c
55ae: 20 b7 55                  JSR loc_55b7         ;
55b1: 20 02 56                  JSR sub_5602         ;
55b4: 4c 09 52                  JMP loc_5209         ;
55b7: a9 00     loc_55b7        LDA #$00             ;
55b9: 85 3d                     STA dat_003d_L       ;
55bb: a9 65                     LDA #$65             ;
55bd: 85 3e                     STA FTYPE            ;
55bf: a9 00                     LDA #$00             ;
55c1: 85 49                     STA ERRNO            ;
55c3: a0 00     loc_55c3        LDY #$00             ;
55c5: b1 3d                     LDA (dat_003d_L),Y   ;
55c7: 29 83                     AND #$83             ;
55c9: c5 51                     CMP HOLD1            ;
55cb: d0 03                     BNE loc_55d0         ;
55cd: 20 01 4a                  JSR loc_4a01         ;
55d0: a5 3d     loc_55d0        LDA dat_003d_L       ;
55d2: 18                        CLC                  ;
55d3: 69 10                     ADC #$10             ;
55d5: 85 3d                     STA dat_003d_L       ;
55d7: 90 02                     BCC loc_55db         ;
55d9: e6 3e                     INC FTYPE            ;
55db: e6 49     loc_55db        INC ERRNO            ;
55dd: a5 49                     LDA ERRNO            ;
55df: c9 40                     CMP #$40             ;
55e1: 90 e0                     BCC loc_55c3         ;
55e3: a5 51                     LDA HOLD1            ;
55e5: 29 03                     AND #$03             ;
55e7: c9 03                     CMP #$03             ;
55e9: d0 16                     BNE loc_5601         ;
55eb: aa                        TAX                  ;
55ec: a9 00                     LDA #$00             ;
55ee: 9d 90 63                  STA CHR_LIT_TORCH_FLAG,X ;
55f1: a2 00                     LDX #$00             ;
55f3: a9 00     loc_55f3        LDA #$00             ;
55f5: 9d 50 63                  STA CHR_STA_UNKNOWN,X ;
55f8: 8a                        TXA                  ;
55f9: 18                        CLC                  ;
55fa: 69 08                     ADC #$08             ;
55fc: aa                        TAX                  ;
55fd: c9 38                     CMP #$38             ;
55ff: 90 f2                     BCC loc_55f3         ;
5601: 60        loc_5601        RTS                  ; Return to caller

5602: 18        sub_5602        CLC                  ;
5603: a9 06                     LDA #$06             ;
5605: 65 41                     ADC SOUNDR           ;
5607: 8d 3c 19                  STA loc_193c         ;
560a: 85 07                     STA dat_0007_L       ;
560c: a9 00                     LDA #$00             ;
560e: 65 42                     ADC CRITIC           ;
5610: 8d 3d 19                  STA loc_193d         ;
5613: 85 08                     STA dat_0007_H       ;
5615: a0 06                     LDY #$06             ;
5617: b1 07                     LDA (dat_0007_L),Y   ;
5619: d0 04                     BNE loc_561f         ;
561b: a9 20                     LDA #$20             ;
561d: 91 07                     STA (dat_0007_L),Y   ;
561f: a9 e8     loc_561f        LDA #$e8             ; Set ???
5621: 85 16                     STA addr_0016_L      ;     address
5623: a9 60                     LDA #$60             ;     to
5625: 85 17                     STA addr_0016_H      ;     $60e8 []
5627: ae 4a 19                  LDX loc_194a         ;
562a: 20 5c 3c                  JSR sub_3c5c         ;
562d: a9 02                     LDA #$02             ;
562f: 4c fc 2b                  JMP sub_2bfc         ;

; Indirectly called using lookup tables tbl_5231_L/tbl_5229_H
5632: a0 00     cont_5632       LDY #$00             ;
5634: b1 41                     LDA (SOUNDR),Y       ;
5636: 29 78                     AND #$78             ;
5638: f0 0a                     BEQ loc_5644         ;
563a: a2 00                     LDX #$00             ; TODO: This is looking at code below
563c: dd 4f 56  loc_563c        CMP loc_564f,X       ;    and deciding to execute it based
563f: f0 06                     BEQ loc_5647         ;    on the instruction found at loc_564f
5641: ca                        DEX                  ;
5642: 10 f8                     BPL loc_563c         ;
5644: 4c 09 52  loc_5644        JMP loc_5209         ; Continue execution @ $5209 [loc_5209]

; It appears there was some thought of having multiple destination options
; and this code would have been used to indirectly jump based on table lookups
; similar to other locations.
; Since only one address is present, and matches the JMP above, it would seem that this is
; likely just something that is never executed and was just never cleaned up prior to shipping.
5647: bd 51 56  loc_5647        LDA tbl_5650_H,X     ; TODO: Why use indexed LDA here if X is always 0?
564a: 48                        PHA                  ;
564b: bd 50 56                  LDA tbl_5650_L,X     ;
564e: 48                        PHA                  ;
564f: ff        loc_564f        .BYTE $ff            ; TODO: Could this be updated to an RTS somehow?

5650: 08        tbl_5650_L      .BYTE $08            ; TODO: Probably the address
5651: 52        tbl_5650_H      .BYTE $52            ;          $5208
5652: 60                        RTS                  ; TODO: Very unlikely this is actually executed

; Bytes 0 and 1 of the value in A are used to identify an address to jump to
; by reading from lookup tables tbl_565f_H and tbl_5663_L
; Execution is then transferred to that location
; This appears to be related to handling the USE action on food/water/torch/timepiece
5653: 29 03     loc_5653        AND #$03             ; Clear all but bits 0 and 1 of A
5655: aa                        TAX                  ; Set X = A
5656: bd 5f 56                  LDA tbl_565f_H,X     ; Push MSB of address to
5659: 48                        PHA                  ;    jump to onto the stack
565a: bd 63 56                  LDA tbl_5663_L,X     ; Push LSB of address to
565d: 48                        PHA                  ;    jump to onto the stack
565e: 60                        RTS                  ; Indirectly jump to address on stack + 1
                                                     ;     Possible destinations are:
                                                     ;     - $5667 [cont_5667]
                                                     ;     - $56a7 [cont_56a7]
                                                     ;     - $56ea [cont_56ea]
                                                     ;     - $5723 [cont_5723]

565f: 56 56 56 57  tbl_565f_H   .BYTE $56,$56,$56,$57
5663: 66 a6 e9 22  tbl_5663_L   .BYTE $66,$a6,$e9,$22

; May be USE food packet?
5667: ad bb 63  cont_5667       LDA INV_FOOD         ;
566a: d0 03                     BNE loc_566f         ;
566c: 4c 74 57                  JMP loc_5774         ;
566f: ce bb 63  loc_566f        DEC INV_FOOD         ;
5672: ad 98 63                  LDA CHR_STOMACH      ;
5675: 30 1a                     BMI loc_5691         ;
5677: ad 99 63                  LDA CHR_HUNGER       ;
567a: 4a                        LSR                  ;
567b: 4a                        LSR                  ;
567c: 4a                        LSR                  ;
567d: 4a                        LSR                  ;
567e: aa                        TAX                  ;
567f: bd 54 60                  LDA loc_6054,X       ;
5682: a2 99                     LDX #$99             ;
5684: 20 43 2e                  JSR loc_2e43         ;
5687: a9 1c                     LDA #$1c             ;
5689: a2 98                     LDX #$98             ;
568b: 20 43 2e                  JSR loc_2e43         ;
568e: 4c 25 52                  JMP loc_5225         ;
5691: a9 ef     loc_5691        LDA #$ef             ; Set ???
5693: 85 16                     STA addr_0016_L      ;    address
5695: a9 5f                     LDA #$5f             ;    to
5697: 85 17                     STA addr_0016_H      ;    $5fef []
5699: ae 4a 19                  LDX loc_194a         ;
569c: 20 5c 3c                  JSR sub_3c5c         ;
569f: a9 10                     LDA #$10             ;
56a1: 20 fc 2b                  JSR sub_2bfc         ;
56a4: 4c 25 52                  JMP loc_5225         ;

; May be USE water flask?
56a7: ad bc 63  cont_56a7       LDA INV_WATER        ;
56aa: d0 03                     BNE loc_56af         ;
56ac: 4c 74 57                  JMP loc_5774         ;
56af: ce bc 63  loc_56af        DEC INV_WATER        ;
56b2: ad 98 63                  LDA CHR_STOMACH      ;
56b5: 30 0a                     BMI loc_56c1         ;
56b7: a9 10                     LDA #$10             ;
56b9: a0 08                     LDY #$08             ;
56bb: 20 d7 56                  JSR loc_56d7         ;
56be: 4c 25 52                  JMP loc_5225         ;
56c1: a9 64     loc_56c1        LDA #$64             ; Set ???
56c3: 85 16                     STA addr_0016_L      ;     address
56c5: a9 60                     LDA #$60             ;     to
56c7: 85 17                     STA addr_0016_H      ;     $6064 []
56c9: ae 4a 19                  LDX loc_194a         ;
56cc: 20 5c 3c                  JSR sub_3c5c         ;
56cf: a9 10                     LDA #$10             ;
56d1: 20 fc 2b                  JSR sub_2bfc         ;
56d4: 4c 25 52                  JMP loc_5225         ;
56d7: 48        loc_56d7        PHA                  ;
56d8: 98                        TYA                  ;
56d9: a2 98                     LDX #$98             ;
56db: 20 43 2e                  JSR loc_2e43         ;
56de: 68                        PLA                  ;
56df: a2 9a                     LDX #$9a             ;
56e1: 4c 43 2e                  JMP loc_2e43         ;
56e4: 20 dc 57  loc_56e4        JSR loc_57dc         ;
56e7: 4c 25 52                  JMP loc_5225         ;

; May be USE torch?
56ea: ad bd 63  cont_56ea       LDA INV_TORCHES      ;
56ed: d0 06                     BNE loc_56f5         ;
56ef: 4c 74 57                  JMP loc_5774         ;
56f2: 4c 25 52  loc_56f2        JMP loc_5225         ;
56f5: 20 ab 57  loc_56f5        JSR loc_57ab         ;
56f8: b0 f8                     BCS loc_56f2         ;
56fa: a2 61                     LDX #$61             ;
56fc: a0 29                     LDY #$29             ;
56fe: 20 4d 4b                  JSR loc_4b4d         ;
5701: 30 e1                     BMI loc_56e4         ;
5703: a9 88                     LDA #$88             ;
5705: 20 b0 49                  JSR loc_49b0         ;
5708: 30 da                     BMI loc_56e4         ;
570a: a0 02                     LDY #$02             ;
570c: b9 1a 61  loc_570c        LDA loc_611a,Y       ;
570f: 91 3d                     STA (dat_003d_L),Y   ;
5711: c8                        INY                  ;
5712: c0 0f                     CPY #$0f             ;
5714: d0 f6                     BNE loc_570c         ;
5716: a5 4b                     LDA CASSBT           ;
5718: 91 3d                     STA (dat_003d_L),Y   ;
571a: ce bd 63                  DEC INV_TORCHES      ;
571d: ee 90 63                  INC CHR_LIT_TORCH_FLAG  ;
5720: 4c af 54  loc_5720        JMP loc_54af         ;

; May be USE timepiece?
5723: ad c1 63  cont_5723       LDA INV_TIMEPIECES   ;
5726: f0 4c                     BEQ loc_5774         ;
5728: a9 61                     LDA #$61             ; Set ???
572a: 85 16                     STA addr_0016_L      ;     address
572c: a9 61                     LDA #$61             ;     to
572e: 85 17                     STA addr_0016_H      ;     $6161 []
5730: 20 31 2e                  JSR loc_2e31         ;
5733: a9 73                     LDA #$73             ;
5735: ae 09 63                  LDX TME_MINUTES      ;
5738: e0 01                     CPX #$01             ;
573a: d0 02                     BNE loc_573e         ;
573c: a9 20                     LDA #$20             ;
573e: 8d 76 61  loc_573e        STA loc_6176         ;
5741: a9 01                     LDA #$01             ;
5743: e0 0a                     CPX #$0a             ;
5745: 90 02                     BCC loc_5749         ;
5747: a9 02                     LDA #$02             ;
5749: 8d 6e 61  loc_5749        STA loc_616e         ;
574c: ad 0a 63                  LDA TME_HOURS        ;
574f: a0 01                     LDY #$01             ;
5751: c9 0a                     CMP #$0a             ;
5753: 90 02                     BCC loc_5757         ;
5755: a0 02                     LDY #$02             ;
5757: 8c 86 61  loc_5757        STY loc_6186         ;
575a: 0a                        ASL                  ;
575b: aa                        TAX                  ;
575c: bd 91 61                  LDA loc_6191,X       ;
575f: 8d 87 61                  STA loc_6187         ;
5762: bd 92 61                  LDA loc_6192,X       ;
5765: 8d 88 61                  STA loc_6188         ;
5768: ae 4a 19  loc_5768        LDX loc_194a         ;
576b: 20 5c 3c                  JSR sub_3c5c         ;
576e: 20 fa 2b                  JSR loc_2bfa         ;
5771: 4c 25 52                  JMP loc_5225         ;
5774: a9 4d     loc_5774        LDA #$4d             ; Set ???
5776: 85 16                     STA addr_0016_L      ;     address
5778: a9 61                     LDA #$61             ;     to
577a: 85 17                     STA addr_0016_H      ;     $614d []
577c: d0 ea                     BNE loc_5768         ;
577e: a9 00     sub_577e        LDA #$00             ;
5780: 8d 76 62                  STA loc_6276         ;
5783: a9 d0                     LDA #$d0             ; Self-modifying
5785: 8d b0 51                  STA loc_51b0         ;    code ($d0 = BNE)
5788: a9 2e                     LDA #$2e             ;
578a: 8d 3a 19                  STA loc_193a         ;
578d: a9 5f                     LDA #$5f             ;
578f: 8d 3b 19                  STA loc_193b         ;
5792: 4c d8 51                  JMP loc_51d8         ;
5795: c9 80     loc_5795        CMP #$80             ;
5797: b0 11                     BCS loc_57aa         ;
5799: a8                        TAY                  ;
579a: b9 4b 64                  LDA INV_ARR_END,Y    ;
579d: 85 0a                     STA dat_0009_H       ;
579f: b9 0b 64                  LDA INV_ARR_START,Y  ;
57a2: 85 09                     STA dat_0009_L       ;
57a4: a0 02                     LDY #$02             ;
57a6: a9 08                     LDA #$08             ;
57a8: 91 09                     STA (dat_0009_L),Y   ;
57aa: 60        loc_57aa        RTS                  ; Return to caller

57ab: a9 96     loc_57ab        LDA #$96             ; Set ???
57ad: 85 16                     STA addr_0016_L      ;     address
57af: a9 5f                     LDA #$5f             ;     to
57b1: 85 17                     STA addr_0016_H      ;     $5f96 []
57b3: ae 4a 19                  LDX loc_194a         ;
57b6: 20 5c 3c                  JSR sub_3c5c         ;
57b9: a9 c6     loc_57b9        LDA #$c6             ;
57bb: 8d 77 19                  STA cont_addr_1977_L ;
57be: a9 57                     LDA #$57             ;
57c0: 8d 78 19                  STA UNK_MEMREF_HI_1978 ;
57c3: 4c f3 2f                  JMP loc_2ff3         ;
57c6: a5 31                     LDA CHKSUM           ;
57c8: 30 ef                     BMI loc_57b9         ;
57ca: c9 1b                     CMP #$1b             ;
57cc: f0 0d                     BEQ loc_57db         ;
57ce: 38                        SEC                  ;
57cf: e9 31                     SBC #$31             ;
57d1: 90 d8                     BCC loc_57ab         ;
57d3: c9 02                     CMP #$02             ;
57d5: b0 d4                     BCS loc_57ab         ;
57d7: 8d 83 62                  STA loc_6283         ;
57da: 18                        CLC                  ;
57db: 60        loc_57db        RTS                  ; Return to caller

57dc: a9 c1     loc_57dc        LDA #$c1             ; Set ???
57de: 85 16                     STA addr_0016_L      ;     address
57e0: a9 61                     LDA #$61             ;     to
57e2: 85 17                     STA addr_0016_H      ;     $61c1 []
57e4: ae 4a 19                  LDX loc_194a         ;
57e7: 20 5c 3c                  JSR sub_3c5c         ;
57ea: 4c fa 2b                  JMP loc_2bfa         ; Continue execution @ $2bfa [loc_2bfa]

57ed: ae 15 63                  LDX CHR_LOC_MAP      ;
57f0: ad 13 63                  LDA CHR_LOC_X        ;
57f3: 18                        CLC                  ;
57f4: 7d 8b 62                  ADC loc_628b,X       ;
57f7: 8d 89 62                  STA loc_6289         ;
57fa: 38                        SEC                  ;
57fb: bd 92 62                  LDA loc_6292,X       ;
57fe: ed 14 63                  SBC CHR_LOC_Y        ;
5801: 8d 8a 62                  STA loc_628a         ;
5804: 10 05                     BPL loc_580b         ;
5806: a9 ff                     LDA #$ff             ;
5808: 8d 89 62                  STA loc_6289         ;
580b: a9 99     loc_580b        LDA #$99             ; Set ???
580d: 85 16                     STA addr_0016_L      ;     address
580f: a9 62                     LDA #$62             ;     to
5811: 85 17                     STA addr_0016_H      ;     $6299 [str_6299]
5813: ae 4a 19                  LDX loc_194a         ;
5816: ce fe 18                  DEC loc_18fe         ;
5819: 20 5c 3c                  JSR sub_3c5c         ;
581c: a9 00                     LDA #$00             ;
581e: 8d fe 18                  STA loc_18fe         ;
5821: 20 b0 2b                  JSR sub_2bb0         ;
5824: a9 07                     LDA #$07             ; Set ???
5826: 85 16                     STA addr_0016_L      ;     address
5828: a9 20                     LDA #$20             ;     to
582a: 85 17                     STA addr_0016_H      ;     $2007 [dat_2007]
582c: ae 4a 19                  LDX loc_194a         ;
582f: 20 5c 3c                  JSR sub_3c5c         ;
5832: 4c 09 52                  JMP loc_5209         ;

5835: ae 83 62  loc_5835        LDX loc_6283         ;
5838: bd 9c 63                  LDA $639c,X          ;
583b: 30 07                     BMI loc_5844         ;
583d: c5 4b                     CMP CASSBT           ;
583f: f0 03                     BEQ loc_5844         ;
5841: 20 95 57                  JSR loc_5795         ;
5844: a5 4b     loc_5844        LDA CASSBT           ;
5846: 20 b4 4e                  JSR sub_4eb4         ;
5849: 08                        PHP                  ;
584a: 20 a2 4e                  JSR sub_4ea2         ;
584d: a5 4b                     LDA CASSBT           ;
584f: ae 83 62                  LDX loc_6283         ;
5852: 9d 9c 63                  STA $639c,X          ;
5855: 28                        PLP                  ;
5856: 60                        RTS                  ; Return to caller

5857: a2 00                     LDX #$00             ;
5859: 8e 7b 19                  STX loc_197b         ;
585c: ca                        DEX                  ;
585d: 8e c1 58                  STX loc_58c1         ;
5860: a9 0f                     LDA #$0f             ;
5862: 8d 84 62                  STA loc_6284         ;
5865: ae 84 62  loc_5865        LDX loc_6284         ;
5868: bd 94 64                  LDA $6494,X          ;
586b: c9 02                     CMP #$02             ;
586d: d0 36                     BNE loc_58a5         ;
586f: bd c4 64                  LDA $64c4,X          ;
5872: cd 15 63                  CMP CHR_LOC_MAP      ;
5875: d0 2e                     BNE loc_58a5         ;
5877: bd a4 64                  LDA $64a4,X          ;
587a: cd 13 63                  CMP CHR_LOC_X        ;
587d: d0 26                     BNE loc_58a5         ;
587f: bd b4 64                  LDA $64b4,X          ;
5882: cd 14 63                  CMP CHR_LOC_Y        ;
5885: d0 1e                     BNE loc_58a5         ;
5887: 24 4b                     BIT CASSBT           ;
5889: 10 0a                     BPL loc_5895         ;
588b: a9 53                     LDA #$53             ; ??Set ???
588d: 8d c1 59                  STA loc_59c1         ; ??    address
5890: a9 5e                     LDA #$5e             ; ??    to
5892: 8d c2 59                  STA loc_59c2         ; ??    $5e53 []
5895: ae 84 62  loc_5895        LDX loc_6284         ;
5898: bd d4 64                  LDA $64d4,X          ;
589b: 85 4b                     STA CASSBT           ;
589d: 8d c1 58                  STA loc_58c1         ;
58a0: 20 c2 58                  JSR loc_58c2         ;
58a3: b0 1b                     BCS loc_58c0         ;
58a5: ce 84 62  loc_58a5        DEC loc_6284         ;
58a8: 10 bb                     BPL loc_5865         ;
58aa: ad c1 58                  LDA loc_58c1         ;
58ad: 10 11                     BPL loc_58c0         ;
58af: a9 ee                     LDA #$ee             ; Set ???
58b1: 85 16                     STA addr_0016_L      ;     address
58b3: a9 59                     LDA #$59             ;     to
58b5: 85 17                     STA addr_0016_H      ;     $59ee []
58b7: ae 4a 19                  LDX loc_194a         ;
58ba: 20 5c 3c                  JSR sub_3c5c         ;
58bd: 20 b0 2b                  JSR sub_2bb0         ;
58c0: 60        loc_58c0        RTS                  ; Return to caller

58c1: 00        loc_58c1        BRK                  ;
58c2: a5 4b     loc_58c2        LDA CASSBT           ;
58c4: 20 74 4b                  JSR sub_4b74         ;
58c7: a9 06                     LDA #$06             ;
58c9: 18                        CLC                  ;
58ca: 65 41                     ADC SOUNDR           ;
58cc: 8d c1 59                  STA loc_59c1         ;
58cf: a5 42                     LDA CRITIC           ;
58d1: 69 00                     ADC #$00             ;
58d3: 8d c2 59                  STA loc_59c2         ;
58d6: a9 9b                     LDA #$9b             ; Set ???
58d8: 8d 55 59                  STA addr_5955_L      ;     address
58db: a9 59                     LDA #$59             ;     to
58dd: 8d 56 59                  STA addr_5955_H      ;     $599b []
58e0: a0 00                     LDY #$00             ;
58e2: b1 41                     LDA (SOUNDR),Y       ;
58e4: 29 7f                     AND #$7f             ;
58e6: d0 1c                     BNE loc_5904         ;
58e8: a5 4b                     LDA CASSBT           ;
58ea: 20 c4 4e                  JSR sub_4ec4         ;
58ed: a0 01                     LDY #$01             ;
58ef: b1 43                     LDA (ZBUFP),Y        ;
58f1: 8d e3 59                  STA loc_59e3         ;
58f4: c8                        INY                  ;
58f5: b1 43                     LDA (ZBUFP),Y        ;
58f7: 8d e4 59                  STA loc_59e4         ;
58fa: a9 ab                     LDA #$ab             ; Set ???
58fc: 8d 55 59                  STA addr_5955_L      ;     address
58ff: a9 59                     LDA #$59             ;     to
5901: 8d 56 59                  STA addr_5955_H      ;     $59ab []
5904: ad 55 59  loc_5904        LDA addr_5955_L      ; Set ???
5907: 85 16                     STA addr_0016_L      ;     address
5909: ad 56 59                  LDA addr_5955_H      ;     to
590c: 85 17                     STA addr_0016_H      ;     $59ab []
590e: ae 4a 19                  LDX loc_194a         ;
5911: 20 5c 3c                  JSR sub_3c5c         ;
5914: a9 21     loc_5914        LDA #$21             ; Set ???
5916: 8d 77 19                  STA cont_addr_1977_L ; address
5919: a9 59                     LDA #$59             ;     to
591b: 8d 78 19                  STA UNK_MEMREF_HI_1978 ; $5921 []
591e: 4c f3 2f                  JMP loc_2ff3         ;
5921: a5 31                     LDA CHKSUM           ;
5923: 30 ef                     BMI loc_5914         ;
5925: c9 1b                     CMP #$1b             ;
5927: f0 24                     BEQ loc_594d         ;
5929: 20 a5 2b                  JSR sub_2ba5         ;
592c: c9 4e                     CMP #$4e             ;
592e: f0 1b                     BEQ loc_594b         ;
5930: c9 59                     CMP #$59             ;
5932: d0 d0                     BNE loc_5904         ;
5934: a9 08                     LDA #$08             ;
5936: 8d 61 19                  STA loc_1961         ;
5939: a0 00                     LDY #$00             ;
593b: b1 41                     LDA (SOUNDR),Y       ;
593d: d0 06                     BNE loc_5945         ;
593f: 20 57 59                  JSR loc_5957         ;
5942: 4c 4b 59                  JMP loc_594b         ;
5945: a0 02     loc_5945        LDY #$02             ;
5947: a9 01                     LDA #$01             ;
5949: 91 41                     STA (SOUNDR),Y       ;
594b: 18        loc_594b        CLC                  ;
594c: 24 38                     BIT BUFRFL           ;
594e: ce 5f 19                  DEC UNK_BYTE_195F    ;
5951: ce 60 19                  DEC UNK_BYTE_1960    ;
5954: 60                        RTS                  ; Return to caller

5955: 9b        addr_5955_L     .BYTE $9b            ;
5956: 59        addr_5955_H     .BYTE $59            ;

5957: a0 16                     LDY #$16          ;
5959: b1 41                     LDA (SOUNDR),Y    ;
595b: aa                        TAX               ;
595c: bd a8 5a                  LDA loc_5aa8,X    ;
595f: a0 18                     LDY #$18          ;
5961: e0 07                     CPX #$07          ;
5963: 90 1f                     BCC loc_5984      ;
5965: aa                        TAX               ;
5966: 18                        CLC               ;
5967: b1 41                     LDA (SOUNDR),Y    ;
5969: 7d 01 63                  ADC $6301,X       ;
596c: 9d 01 63                  STA $6301,X       ;
596f: 88                        DEY               ;
5970: b1 41                     LDA (SOUNDR),Y    ;
5972: 7d 00 63                  ADC $6300,X       ;
5975: 9d 00 63                  STA $6300,X       ;
5978: 90 1b                     BCC loc_5995      ;
597a: a9 ff                     LDA #$ff          ;
597c: 9d 00 63                  STA $6300,X       ;
597f: 9d 01 63                  STA $6301,X       ;
5982: d0 11                     BNE loc_5995      ;
5984: aa        loc_5984        TAX               ;
5985: 18                        CLC               ;
5986: b1 41                     LDA (SOUNDR),Y    ;
5988: 7d 00 63                  ADC $6300,X       ;
598b: 9d 00 63                  STA $6300,X       ;
598e: 90 05                     BCC loc_5995      ;
5990: a9 ff                     LDA #$ff          ;
5992: 9d 00 63                  STA $6300,X       ;
5995: a5 4b     loc_5995        LDA CASSBT        ;
5997: 20 c9 4a                  JSR loc_4ac9      ;
599a: 60                        RTS               ; Return to caller

599b: a6 00 00 a5 47 45 54 3f  dat_599b  .BYTE $a6,$00,$00,$a5,$47,$45,$54,$3f  ; ....GET?
59a3: 0d 0d 0d a9 a5 ac c0 59   .BYTE $0d,$0d,$0d,$a9,$a5,$ac,$c0,$59  ; .......Y
59ab: a6 00 00 a5 47 45 54 3f   .BYTE $a6,$00,$00,$a5,$47,$45,$54,$3f  ; ....GET?
59b3: 0d 0d 0d a3 e8 59 a9 a5   .BYTE $0d,$0d,$0d,$a3,$e8,$59,$a9,$a5  ; .....Y..
59bb: b1 e3 59 06 20 b3 53 5e   .BYTE $b1,$e3,$59,$06,$20,$b3,$53,$5e  ; ..Y. .S^
59c3: 26 0d a3 e5 59 a6 00 07   .BYTE $26,$0d,$a3,$e5,$59,$a6,$00,$07  ; &...Y...
59cb: a5 a1 59 a0 65 73 2c 20   .BYTE $a5,$a1,$59,$a0,$65,$73,$2c,$20  ; ..Y.es,
59d3: a1 4e a0 6f 20 6f 72 20   .BYTE $a1,$4e,$a0,$6f,$20,$6f,$72,$20  ; .N.o or
59db: a1 45 53 43 a0 2e 0d ff   .BYTE $a1,$45,$53,$43,$a0,$2e,$0d,$ff  ; .ESC....
59e3: 00 00 a9 00 2c a9 ff 8d   .BYTE $00,$00,$a9,$00,$2c,$a9,$ff,$8d  ; ....,...
59eb: fe 18 60 a6 00 03 a5 4e   .BYTE $fe,$18,$60,$a6,$00,$03,$a5,$4e  ; ..`....N
59f3: 6f 74 68 69 6e 67 20 68   .BYTE $6f,$74,$68,$69,$6e,$67,$20,$68  ; othing h
59fb: 65 72 65 2e 0d ff 80 19   .BYTE $65,$72,$65,$2e,$0d,$ff,$80,$19  ; ere.....
5a03: 02 00 00 15 46 6f 6f 64   .BYTE $02,$00,$00,$15,$46,$6f,$6f,$64  ; ....Food
5a0b: 20 50 61 63 6b 65 74 28   .BYTE $20,$50,$61,$63,$6b,$65,$74,$28  ;  Packet(
5a13: 73 29 00 00 00 00 00 46   .BYTE $73,$29,$00,$00,$00,$00,$00,$46  ; s).....F
5a1b: 6f 6f 64 20 50 61 63 6b   .BYTE $6f,$6f,$64,$20,$50,$61,$63,$6b  ; ood Pack
5a23: 65 74 28 73 29 00 57 61   .BYTE $65,$74,$28,$73,$29,$00,$57,$61  ; et(s).Wa
5a2b: 74 65 72 20 46 6c 61 73   .BYTE $74,$65,$72,$20,$46,$6c,$61,$73  ; ter Flas
5a33: 6b 28 73 29 00 54 6f 72   .BYTE $6b,$28,$73,$29,$00,$54,$6f,$72  ; k(s).Tor
5a3b: 63 68 28 65 73 29 00 54   .BYTE $63,$68,$28,$65,$73,$29,$00,$54  ; ch(es).T
5a43: 69 6d 65 70 69 65 63 65   .BYTE $69,$6d,$65,$70,$69,$65,$63,$65  ; imepiece
5a4b: 28 73 29 00 43 6f 6d 70   .BYTE $28,$73,$29,$00,$43,$6f,$6d,$70  ; (s).Comp
5a53: 61 73 73 28 65 73 29 00   .BYTE $61,$73,$73,$28,$65,$73,$29,$00  ; ass(es).
5a5b: 4b 65 79 28 73 29 00 43   .BYTE $4b,$65,$79,$28,$73,$29,$00,$43  ; Key(s).C
5a63: 72 79 73 74 61 6c 28 73   .BYTE $72,$79,$73,$74,$61,$6c,$28,$73  ; rystal(s
5a6b: 29 00 47 65 6d 28 73 29   .BYTE $29,$00,$47,$65,$6d,$28,$73,$29  ; ).Gem(s)
5a73: 00 4a 65 77 65 6c 28 73   .BYTE $00,$4a,$65,$77,$65,$6c,$28,$73  ; .Jewel(s
5a7b: 29 00 47 6f 6c 64 00 53   .BYTE $29,$00,$47,$6f,$6c,$64,$00,$53  ; ).Gold.S
5a83: 69 6c 76 65 72 00 43 6f   .BYTE $69,$6c,$76,$65,$72,$00,$43,$6f  ; ilver.Co
5a8b: 70 70 65 72 00 1a 29 38   .BYTE $70,$70,$65,$72,$00,$1a,$29,$38  ; pper..)8
5a93: 42 4f 5b 62 6d 74 7d 82   .BYTE $42,$4f,$5b,$62,$6d,$74,$7d,$82  ; BO[bmt}.
5a9b: 89 5a 5a 5a 5a 5a 5a 5a   .BYTE $89,$5a,$5a,$5a,$5a,$5a,$5a,$5a  ; .ZZZZZZZ
5aa3: 5a 5a 5a 5a 5a bb bc bd   .BYTE $5a,$5a,$5a,$5a,$5a,$bb,$bc,$bd  ; ZZZZZ...
5aab: c1 c0 bf be b7 b9 b1 b3   .BYTE $c1,$c0,$bf,$be,$b7,$b9,$b1,$b3  ; ........
5ab3: b5                        .BYTE $b5            ; .

5ab4: a9 37     sub_5ab4        LDA #37           ;
5ab6: 8d 3a 19                  STA loc_193a      ;
5ab9: a9 5f                     LDA #$5f          ;
5abb: 8d 3b 19                  STA loc_193b      ;
5abe: a9 53                     LDA #$53          ; Set ???
5ac0: 8d c3 5c                  STA dat_5cc3      ;     address
5ac3: a9 5c                     LDA #$5c          ;     to
5ac5: 8d c4 5c                  STA dat_5cc4      ;     $5c53 [dat_5c53]
5ac8: 4c df 5a                  JMP loc_5adf      ;
5acb: a9 29     sub_5acb        LDA #$29          ;
5acd: 8d 3a 19                  STA loc_193a      ;
5ad0: a9 5f                     LDA #$5f          ;
5ad2: 8d 3b 19                  STA loc_193b      ;
5ad5: a9 6a                     LDA #$6a          ; Set ???
5ad7: 8d c3 5c                  STA dat_5cc3      ;     address
5ada: a9 5c                     LDA #$5c          ;     to
5adc: 8d c4 5c                  STA dat_5cc4      ;     $5c6a [dat_5c6a]
5adf: a9 57     loc_5adf        LDA #$57          ; Set ???
5ae1: 8d 44 19                  STA loc_1944      ;     address
5ae4: a9 5f                     LDA #$5f          ;     to
5ae6: 8d 45 19                  STA loc_1945      ;     $5f57 []
5ae9: a9 0c                     LDA #$0c          ;
5aeb: 8d 76 62                  STA loc_6276      ;
5aee: a9 f0                     LDA #$f0          ; Self-modifying
5af0: 8d b0 51                  STA loc_51b0      ;     code ($f0 = BEQ)
5af3: 20 b2 50                  JSR sub_50b2      ;
5af6: b0 16                     BCS loc_5b0e      ;
5af8: c9 80                     CMP #$80          ;
5afa: b0 19                     BCS loc_5b15      ;
5afc: 85 4b                     STA CASSBT        ;
5afe: 20 74 4b                  JSR sub_4b74      ;
5b01: f0 0b                     BEQ loc_5b0e      ;
5b03: a9 09                     LDA #$09          ;
5b05: 8d 61 19                  STA loc_1961      ;
5b08: a9 02                     LDA #$02          ;
5b0a: a0 02                     LDY #$02          ;
5b0c: 91 41                     STA (SOUNDR),Y    ;
5b0e: ce 5f 19  loc_5b0e        DEC UNK_BYTE_195F ;
5b11: ce 60 19                  DEC UNK_BYTE_1960 ;
5b14: 60                        RTS               ; Return to caller
5b15: 29 03     loc_5b15        AND #$03          ;
5b17: 18                        CLC               ;
5b18: 6d 77 62                  ADC loc_6277      ;
5b1b: 8d 17 5a                  STA loc_5a17      ;
5b1e: aa                        TAX               ;
5b1f: a9 00                     LDA #$00          ;
5b21: 8d 85 62                  STA loc_6285      ;
5b24: 8d 86 62                  STA loc_6286      ;
5b27: bc a8 5a                  LDY loc_5aa8,X    ;
5b2a: e0 07                     CPX #$07          ;
5b2c: 90 07                     BCC loc_5b35      ;
5b2e: b9 00 63                  LDA $6300,Y       ;
5b31: 8d 85 62                  STA loc_6285      ;
5b34: c8                        INY               ;
5b35: b9 00 63  loc_5b35        LDA $6300,Y       ;
5b38: 8d 86 62                  STA loc_6286      ;
5b3b: 0d 85 62                  ORA loc_6285      ;
5b3e: f0 ce                     BEQ loc_5b0e      ;
5b40: ad c3 5c  loc_5b40        LDA dat_5cc3      ;
5b43: 85 16                     STA addr_0016_L   ;
5b45: ad c4 5c                  LDA dat_5cc4      ;
5b48: 85 17                     STA addr_0016_H   ;
5b4a: ae 4a 19                  LDX loc_194a      ;
5b4d: 20 5c 3c                  JSR sub_3c5c      ;
5b50: 20 a0 2a                  JSR loc_2aa0      ;
5b53: b0 b9                     BCS loc_5b0e      ;
5b55: f0 b7                     BEQ loc_5b0e      ;
5b57: 10 14                     BPL loc_5b6d      ;
5b59: a9 a4                     LDA #$a4          ; Set ???
5b5b: 85 16     loc_5b5b        STA addr_0016_L   ;     address
5b5d: a9 5c                     LDA #$5c          ;     to
5b5f: 85 17                     STA addr_0016_H   ;     $5ca4 []
5b61: ae 4a 19                  LDX loc_194a      ;
5b64: 20 5c 3c                  JSR sub_3c5c      ;
5b67: 20 fa 2b                  JSR loc_2bfa      ;
5b6a: 4c 40 5b                  JMP loc_5b40      ;
5b6d: a6 03     loc_5b6d        LDX dat_0003      ;
5b6f: a4 02                     LDY dat_0002      ;
5b71: 84 03                     STY dat_0003      ;
5b73: 86 02                     STX dat_0002      ;
5b75: a9 09                     LDA #$09          ;
5b77: 8d 61 19                  STA loc_1961      ;
5b7a: 38                        SEC               ;
5b7b: ad 86 62                  LDA loc_6286      ;
5b7e: e5 03                     SBC dat_0003      ;
5b80: 8d 88 62                  STA loc_6288      ;
5b83: ad 85 62                  LDA loc_6285      ;
5b86: e5 02                     SBC dat_0002      ; ..
5b88: 8d 87 62                  STA loc_6287      ; ..b
5b8b: b0 14                     BCS loc_5ba1      ; ..
5b8d: ad 85 62                  LDA loc_6285      ;
5b90: 85 02                     STA dat_0002      ;
5b92: ad 86 62                  LDA loc_6286      ;
5b95: 85 03                     STA dat_0003      ;
5b97: a9 00                     LDA #$00          ;
5b99: 8d 87 62                  STA loc_6287      ;
5b9c: a9 00                     LDA #$00          ;
5b9e: 8d 88 62                  STA loc_6288      ;
5ba1: ae 17 5a  loc_5ba1        LDX loc_5a17      ;
5ba4: bc a8 5a                  LDY loc_5aa8,X    ;
5ba7: e0 07                     CPX #$07          ;
5ba9: 90 07                     BCC loc_5bb2      ;
5bab: ad 87 62                  LDA loc_6287      ;
5bae: 99 00 63                  STA $6300,Y       ;
5bb1: c8                        INY               ;
5bb2: ad 88 62  loc_5bb2        LDA loc_6288      ;
5bb5: 99 00 63                  STA $6300,Y       ;
5bb8: 8e 17 5a  loc_5bb8        STX loc_5a17      ;
5bbb: a5 02                     LDA dat_0002      ;
5bbd: 8d 18 5a                  STA loc_5a18      ;
5bc0: a5 03                     LDA dat_0003      ;
5bc2: 8d 19 5a                  STA loc_5a19      ;
5bc5: bd 90 5a                  LDA loc_5a90,X    ;
5bc8: 85 07                     STA dat_0007_L    ;
5bca: bd 9c 5a                  LDA loc_5a9c,X    ;
5bcd: 85 08                     STA dat_0007_H    ;
5bcf: a0 00                     LDY #$00          ;
5bd1: b1 07     loc_5bd1        LDA (dat_0007_L),Y;
5bd3: f0 06                     BEQ loc_5bdb      ;
5bd5: 99 07 5a                  STA loc_5a07,Y    ;
5bd8: c8                        INY               ;
5bd9: d0 f6                     BNE loc_5bd1      ;
5bdb: a9 00     loc_5bdb        LDA #$00          ;
5bdd: 99 07 5a  loc_5bdd        STA loc_5a07,Y    ;
5be0: c8                        INY               ;
5be1: c0 0f                     CPY #$0f          ;
5be3: 90 f8                     BCC loc_5bdd      ;
5be5: a9 0f                     LDA #$0f          ;
5be7: 8d 84 62                  STA loc_6284      ;
5bea: ae 84 62  loc_5bea        LDX loc_6284      ;
5bed: bd 94 64                  LDA $6494,X       ;
5bf0: c9 02                     CMP #$02          ;
5bf2: d0 50                     BNE loc_5c44      ;
5bf4: bd a4 64                  LDA $64a4,X       ;
5bf7: cd 13 63                  CMP CHR_LOC_X     ;
5bfa: d0 48                     BNE loc_5c44      ;
5bfc: bd b4 64                  LDA $64b4,X       ;
5bff: cd 14 63                  CMP CHR_LOC_Y     ;
5c02: d0 40                     BNE loc_5c44      ;
5c04: bd c4 64                  LDA $64c4,X       ;
5c07: cd 15 63                  CMP CHR_LOC_MAP   ;
5c0a: d0 38                     BNE loc_5c44      ;
5c0c: bd d4 64                  LDA $64d4,X       ;
5c0f: 85 4b                     STA CASSBT        ;
5c11: 20 74 4b                  JSR sub_4b74      ;
5c14: f0 2e                     BEQ loc_5c44      ;
5c16: a0 00                     LDY #$00          ;
5c18: b1 41                     LDA (SOUNDR),Y    ;
5c1a: d0 28                     BNE loc_5c44      ;
5c1c: a0 16                     LDY #$16          ;
5c1e: b1 41                     LDA (SOUNDR),Y    ;
5c20: cd 17 5a                  CMP loc_5a17      ;
5c23: d0 1f                     BNE loc_5c44      ;
5c25: a0 18                     LDY #$18          ;
5c27: 18                        CLC               ;
5c28: ad 19 5a                  LDA loc_5a19      ;
5c2b: 71 41                     ADC (SOUNDR),Y    ;
5c2d: 91 41                     STA (SOUNDR),Y    ;
5c2f: 88                        DEY               ;
5c30: ad 18 5a                  LDA loc_5a18      ;
5c33: 71 41                     ADC (SOUNDR),Y    ;
5c35: 99 41 00                  STA SOUNDR,Y      ;
5c38: 90 07                     BCC loc_5c41      ;
5c3a: a9 ff                     LDA #$ff          ;
5c3c: 91 41                     STA (SOUNDR),Y    ;
5c3e: c8                        INY               ;
5c3f: 91 41                     STA (SOUNDR),Y    ;
5c41: 4c 0e 5b  loc_5c41        JMP loc_5b0e      ;
5c44: ce 84 62  loc_5c44        DEC loc_6284      ;
5c47: 10 a1                     BPL loc_5bea      ;
5c49: a2 5a                     LDX #$5a          ;
5c4b: a0 01                     LDY #$01          ;
5c4d: 20 4d 4b                  JSR loc_4b4d      ;
5c50: 4c 0e 5b                  JMP loc_5b0e      ;

5c53: a6 00 00 a5 4f 66 66 65  dat_5c53  .BYTE $a6,$00,$00,$a5,$4f,$66,$66,$65  ; ....Offe
5c5b: 72 20 68 6f 77 20 6d 61   .BYTE $72,$20,$68,$6f,$77,$20,$6d,$61  ; r how ma
5c63: 6e 79 3f 0d ac 7d 5c      .BYTE $6e,$79,$3f,$0d,$ac,$7d,$5c  ; ny?..}\

5c6a: a6          dat_5c6a      .BYTE $a6    ; .
5c6b: 00 00 a5 44 72 6f 70 20   .BYTE $00,$00,$a5,$44,$72,$6f,$70,$20  ; ...Drop
5c73: 68 6f 77 20 6d 61 6e 79   .BYTE $68,$6f,$77,$20,$6d,$61,$6e,$79  ; how many
5c7b: 3f 0d a6 00 07 a5 45 6e   .BYTE $3f,$0d,$a6,$00,$07,$a5,$45,$6e  ; ?.....En
5c83: 74 65 72 20 61 6d 6f 75   .BYTE $74,$65,$72,$20,$61,$6d,$6f,$75  ; ter amou
5c8b: 6e 74 20 6f 72 20 70 72   .BYTE $6e,$74,$20,$6f,$72,$20,$70,$72  ; nt or pr
5c93: 65 73 73 20 a1 45 53 43   .BYTE $65,$73,$73,$20,$a1,$45,$53,$43  ; ess .ESC
5c9b: a0 2e 0d a6 0a 03 3e 20   .BYTE $a0,$2e,$0d,$a6,$0a,$03,$3e,$20  ; ......>
5ca3: ff a6 00 03 a5 49 6e 76   .BYTE $ff,$a6,$00,$03,$a5,$49,$6e,$76  ; .....Inv
5cab: 61 6c 69 64 20 65 6e 74   .BYTE $61,$6c,$69,$64,$20,$65,$6e,$74  ; alid ent
5cb3: 72 79 2c 20 74 72 79 20   .BYTE $72,$79,$2c,$20,$74,$72,$79,$20  ; ry, try
5cbb: 61 67 61 69 6e 2e 0d ff   .BYTE $61,$67,$61,$69,$6e,$2e,$0d,$ff  ; again...
5cc3: ff        dat_5cc3        .BYTE $ff            ; .
5cc4: ff        dat_5cc4        .BYTE $ff            ; .

; TODO: How does this code get called?
;     Are the first 2 bytes below part of the sub or part of the data section above?
5cc5: a5 4b     loc_5cc5        LDA CASSBT           ;
5cc7: 48                        PHA                  ;
5cc8: a2 05                     LDX #$05             ;
5cca: 8e 04 5d  loc_5cca        STX dat_5d04         ;
5ccd: bd 9c 63                  LDA $639c,X          ;
5cd0: 30 18                     BMI loc_5cea         ;
5cd2: 85 4b                     STA CASSBT           ;
5cd4: 20 74 4b                  JSR sub_4b74         ;
5cd7: 20 c4 4e                  JSR sub_4ec4         ;
5cda: a0 10                     LDY #$10             ;
5cdc: ae 04 5d                  LDX dat_5d04         ;
5cdf: e0 02                     CPX #$02             ;
5ce1: 90 02                     BCC loc_5ce5         ;
5ce3: a0 0d                     LDY #$0d             ;
5ce5: b1 43     loc_5ce5        LDA (ZBUFP),Y        ;
5ce7: 88                        DEY                  ;
5ce8: 91 43                     STA (ZBUFP),Y        ;
5cea: ca        loc_5cea        DEX                  ;
5ceb: 10 dd                     BPL loc_5cca         ;
5ced: a9 05                     LDA #$05             ;
5cef: 85 16                     STA BUFADR+1         ;
5cf1: a9 5d                     LDA #$5d             ;
5cf3: 85 17                     STA addr_0016_H      ;
5cf5: ae 4a 19                  LDX loc_194a         ;
5cf8: 20 5c 3c                  JSR sub_3c5c         ;
5cfb: 20 b0 2b                  JSR sub_2bb0         ;
5cfe: 68                        PLA                  ;
5cff: 85 4b                     STA CASSBT           ;
5d01: 4c 09 52                  JMP loc_5209         ;

5d04: 00        dat_5d04        BRK               ; Used to temporarily store the X register in
5d05: a6 00                     LDX LINZBS        ; ..
5d07: 02                        .BYTE $02         ; .
5d08: a5 59                     LDA SAVMSC+1      ; .Y
5d0a: 6f                        .BYTE $6f         ; o
5d0b: 75 72                     ADC COLAC,X       ; ur
5d0d: 20 69 6e                  JSR $6e69         ;  in
5d10: 20 75 73                  JSR $7375         ;  us
5d13: 65 20                     ADC bad_0020        ; e
5d15: 77                        .BYTE $77         ; w
5d16: 65 61                     ADC NEWCOL        ; ea
5d18: 70 6f                     BVS bad_5d89      ; po
5d1a: 6e 73 20                  ROR bad_2073      ; ns
5d1d: 61 6e                     ADC (BITMSK,X)    ; an
5d1f: 64                        .BYTE $64         ; d
5d20: 20 61 72                  JSR $7261         ;  ar
5d23: 6d 6f 72                  ADC $726f         ; mor
5d26: 0d a5 68                  ORA $68a5         ; ..h
5d29: 61 76                     ADC (DELTAR,X)    ; av
5d2b: 65 20                     ADC bad_0020        ; e
5d2d: 62                        .BYTE $62         ; b
5d2e: 65 65                     ADC ADRESS+1      ; ee
5d30: 6e 20 72                  ROR $7220         ; n r
5d33: 65 70                     ADC ROWAC         ; ep
5d35: 61 69                     ADC (SAVADR+1,X)  ; ai
5d37: 72                        .BYTE $72         ; r
5d38: 65 64                     ADC ADRESS        ; ed
5d3a: 2e 0d ff                  ROL $ff0d         ; ...
5d3d: 31 32                     AND (bad_0032_L),Y    ; 12
5d3f: 33 34                     .BYTE $33,$34     ; 34

5d41: a6 00     dat_5d41        LDX LINZBS        ; ..
5d43: 00                        BRK               ; .
5d44: a2 b4                     LDX #$b4          ; ..
5d46: 3a                        .BYTE $3a         ; :
5d47: 19 28 ab                  ORA $ab28,Y       ; .(.
5d4a: 0d a3 b6                  ORA $b6a3         ; ...
5d4d: 5d a6 03                  EOR UNUSED_BYTES+18,X  ; ]..
5d50: 02                        .BYTE $02         ; .
5d51: 20 28 a1  dat_5d51        JSR $a128         ;  (.
5d54: 31 a0                     AND ($a0),Y       ; 1.
5d56: 29 20                     AND #$20          ; )
5d58: b4 3c                     LDY NOCKSM,X      ; .<
5d5a: 19 1d 20                  ORA bad_201d,Y    ; ..
5d5d: ad ac 5d                  LDA bad_5dac      ; ..]
5d60: ab                        .BYTE $ab         ; .
5d61: a6 03                     LDX bad_0003      ; ..
5d63: 03 a3 bb                  .BYTE $03,$a3,$bb  ; ...
5d66: 5d 20 28                  EOR bad_2820,X    ; ] (
5d69: a1 32                     LDA (bad_0032_L,X)    ; .2
5d6b: a0 29                     LDY #$29          ; .)
5d6d: 20 b4 3e                  JSR bad_3eb4      ;  .>
5d70: 19 1d 20                  ORA bad_201d,Y    ; ..
5d73: ad ac 5d                  LDA bad_5dac      ; ..]
5d76: ab                        .BYTE $ab         ; .
5d77: a6 03                     LDX bad_0003      ; ..
5d79: 04 a3 bb                  .BYTE $04,$a3,$bb  ; ...
5d7c: 5d 20 28                  EOR bad_2820,X    ; ] (
5d7f: a1 33                     LDA (BUFRHI,X)    ; .3
5d81: a0 29                     LDY #$29          ; .)
5d83: 20 b4 40                  JSR bad_40b4      ;  .@
5d86: 19 1d 20                  ORA bad_201d,Y    ; ..
5d89: ad ac 5d                  LDA bad_5dac      ; ..]
5d8c: ab                        .BYTE $ab         ; .
5d8d: a6 03                     LDX bad_0003      ; ..
5d8f: 05 a3                     ORA $a3           ; ..
5d91: bb                        .BYTE $bb         ; .
5d92: 5d 20 28                  EOR bad_2820,X    ; ] (
5d95: a1 34                     LDA (BFENLO,X)    ; .4
5d97: a0 29                     LDY #$29          ; .)
5d99: 20 b4 42                  JSR bad_42b4      ;  .B
5d9c: 19 1d 20                  ORA bad_201d,Y    ; ..
5d9f: ad ac 5d                  LDA bad_5dac      ; ..]
5da2: ab                        .BYTE $ab         ; .
5da3: 0d 0d a2                  ORA $a20d         ; ...
5da6: ad 44 19                  LDA bad_1944      ; .D.
5da9: ab                        .BYTE $ab         ; .
5daa: 0d ff 00                  ORA FPTR2+1       ; ...
5dad: 00        dat_5dad        BRK               ; .
5dae: 00        dat_5dae        BRK               ; .
5daf: 00        dat_5daf        BRK               ; .
5db0: b2                        .BYTE $b2         ; .
5db1: ae 5d 02                  LDX LINBUF+22     ; .].
5db4: 25 ae                     AND $ae           ; %.

; TODO: How does this sub get called?
5db6: a9 00                     LDA #$00          ;
5db8: 8d af 5d                  STA dat_5daf      ;
5dbb: ae af 5d                  LDX dat_5daf      ;
5dbe: bc 55 5e                  LDY loc_5e55,X    ;
5dc1: a9 20                     LDA #$20          ;
5dc3: 99 51 5d                  STA dat_5d51,Y    ;
5dc6: bd 46 19                  LDA dat_1946,X    ;
5dc9: 20 b4 4e                  JSR sub_4eb4      ;
5dcc: 90 08                     BCC loc_5dd6      ;
5dce: bc 55 5e                  LDY loc_5e55,X    ;
5dd1: a9 2a                     LDA #$2a          ;
5dd3: 99 51 5d                  STA dat_5d51,Y    ;
5dd6: a9 54     loc_5dd6        LDA #$54          ;
5dd8: 8d ac 5d                  STA loc_5dac      ;
5ddb: a9 5e                     LDA #$5e          ;
5ddd: 8d ad 5d                  STA dat_5dad      ;
5de0: ad b0 51                  LDA loc_51b0      ; This checks a location in the code
5de3: c9 d0                     CMP #$d0          ;     $d0 = BNE
5de5: d0 1e                     BNE loc_5e05      ;
5de7: bd 46 19                  LDA dat_1946,X    ;
5dea: 30 19                     BMI loc_5e05      ;
5dec: 85 4b                     STA CASSBT        ;
5dee: 20 74 4b                  JSR sub_4b74      ;
5df1: 20 c4 4e                  JSR sub_4ec4      ;
5df4: a0 01                     LDY #$01          ;
5df6: b1 43                     LDA (ZBUFP),Y     ;
5df8: 8d ae 5d                  STA dat_5dae      ;
5dfb: a9 b0                     LDA #$b0          ;
5dfd: 8d ac 5d                  STA loc_5dac      ;
5e00: a9 5d                     LDA #$5d          ;
5e02: 8d ad 5d                  STA dat_5dad      ;
5e05: ee af 5d  loc_5e05        INC dat_5daf      ;
5e08: 60                        RTS               ; Return to caller

5e09: a6 00 00 a5 b4 3a 19 28  str_5e09  .BYTE $a6,$00,$00,$a5,$b4,$3a,$19,$28  ; .....:.(
5e11: 0d a6 03 02 20 28 a1 31   .BYTE $0d,$a6,$03,$02,$20,$28,$a1,$31  ; .... (.1
5e19: a0 29 20 ad 3c 19 ab a6   .BYTE $a0,$29,$20,$ad,$3c,$19,$ab,$a6  ; .) .<...
5e21: 03 03 20 28 a1 32 a0 29   .BYTE $03,$03,$20,$28,$a1,$32,$a0,$29  ; .. (.2.)
5e29: 20 ad 3e 19 ab a6 03 04   .BYTE $20,$ad,$3e,$19,$ab,$a6,$03,$04  ;  .>.....
5e31: 20 28 a1 33 a0 29 20 ad   .BYTE $20,$28,$a1,$33,$a0,$29,$20,$ad  ;  (.3.) .
5e39: 40 19 ab a6 03 05 20 28   .BYTE $40,$19,$ab,$a6,$03,$05,$20,$28  ; @..... (
5e41: a1 34 a0 29 20 ad 42 19   .BYTE $a1,$34,$a0,$29,$20,$ad,$42,$19  ; .4.) .B.
5e49: ab 0d 0d a2 ad 44 19 ab   .BYTE $ab,$0d,$0d,$a2,$ad,$44,$19,$ab  ; .....D..
5e51: 0d ff                     .BYTE $0d,$ff                          ; ..
5e52: 00 ae 00                  .BYTE $00,$ae,$00                      ; ...
5e55: 16 2c 42      dat_5e55    .BYTE $16,$2c,$42                      ; .,B
5e59: 46 6f 6f 64 20 50 61 63   .BYTE $46,$6f,$6f,$64,$20,$50,$61,$63  ; Food Pac
5e61: 6b 65 74 73 3a 20 b2 bb   .BYTE $6b,$65,$74,$73,$3a,$20,$b2,$bb  ; kets: ..
5e69: 63 03 ae 57 61 74 65 72   .BYTE $63,$03,$ae,$57,$61,$74,$65,$72  ; c..Water
5e71: 20 46 6c 61 73 6b 73 3a   .BYTE $20,$46,$6c,$61,$73,$6b,$73,$3a  ;  Flasks:
5e79: 20 b2 bc 63 03 ae 55 6e   .BYTE $20,$b2,$bc,$63,$03,$ae,$55,$6e  ;  ..c..Un
5e81: 6c 69 74 20 54 6f 72 63   .BYTE $6c,$69,$74,$20,$54,$6f,$72,$63  ; lit Torc
5e89: 68 65 73 3a 20 b2 bd 63   .BYTE $68,$65,$73,$3a,$20,$b2,$bd,$63  ; hes: ..c
5e91: 03 ae 54 69 6d 65 70 69   .BYTE $03,$ae,$54,$69,$6d,$65,$70,$69  ; ..Timepi
5e99: 65 63 65 73 3a 20 b2 c1   .BYTE $65,$63,$65,$73,$3a,$20,$b2,$c1  ; eces: ..
5ea1: 63 03 ae 43 6f 6d 70 61   .BYTE $63,$03,$ae,$43,$6f,$6d,$70,$61  ; c..Compa
5ea9: 73 73 65 73 3a 20 b2 c0   .BYTE $73,$73,$65,$73,$3a,$20,$b2,$c0  ; sses: ..
5eb1: 63 03 ae 4b 65 79 73 3a   .BYTE $63,$03,$ae,$4b,$65,$79,$73,$3a  ; c..Keys:
5eb9: 20 b2 bf 63 03 ae 43 72   .BYTE $20,$b2,$bf,$63,$03,$ae,$43,$72  ;  ..c..Cr
5ec1: 79 73 74 61 6c 73 3a 20   .BYTE $79,$73,$74,$61,$6c,$73,$3a,$20  ; ystals:
5ec9: b2 be 63 03 ae 47 65 6d   .BYTE $b2,$be,$63,$03,$ae,$47,$65,$6d  ; ..c..Gem
5ed1: 73 3a 20 b1 b7 63 06 ae   .BYTE $73,$3a,$20,$b1,$b7,$63,$06,$ae  ; s: ..c..
5ed9: 4a 65 77 65 6c 73 3a 20   .BYTE $4a,$65,$77,$65,$6c,$73,$3a,$20  ; Jewels:
5ee1: b1 b9 63 06 ae 47 6f 6c   .BYTE $b1,$b9,$63,$06,$ae,$47,$6f,$6c  ; ..c..Gol
5ee9: 64 20 20 3a 20 b1 b1 63   .BYTE $64,$20,$20,$3a,$20,$b1,$b1,$63  ; d  : ..c
5ef1: 06 ae 53 69 6c 76 65 72   .BYTE $06,$ae,$53,$69,$6c,$76,$65,$72  ; ..Silver
5ef9: 3a 20 b1 b3 63 06 ae 43   .BYTE $3a,$20,$b1,$b3,$63,$06,$ae,$43  ; : ..c..C
5f01: 6f 70 70 65 72 3a 20 b1   .BYTE $6f,$70,$70,$65,$72,$3a,$20,$b1  ; opper: .
5f09: b5 63 06 ae 59 5e 6c 5e   .BYTE $b5,$63,$06,$ae,$59,$5e,$6c,$5e  ; .c..Y^l^
5f11: 7f 5e 93 5e a4 5e b4 5e   .BYTE $7f,$5e,$93,$5e,$a4,$5e,$b4,$5e  ; ^.^.^.^
5f19: bf 5e ce 5e d9 5e e6 5e   .BYTE $bf,$5e,$ce,$5e,$d9,$5e,$e6,$5e  ; .^.^.^.^
5f21: f3 5e 00 5f 55 53 45 00   .BYTE $f3,$5e,$00,$5f,$55,$53,$45,$00  ; .^._USE.
5f29: 44 52 4f 50 00 43 41 53   .BYTE $44,$52,$4f,$50,$00,$43,$41,$53  ; DROP.CAS
5f31: 54 00 47 45 54 00 4f 46   .BYTE $54,$00,$47,$45,$54,$00,$4f,$46  ; T.GET.OF
5f39: 46 45 52 00 49 74 65 6d   .BYTE $46,$45,$52,$00,$49,$74,$65,$6d  ; FER.Item
5f41: 20 a1 23 a0 20 6f 72 20   .BYTE $20,$a1,$23,$a0,$20,$6f,$72,$20  ;  .#. or
5f49: a1 45 53 43 a0 20 74 6f   .BYTE $a1,$45,$53,$43,$a0,$20,$74,$6f  ; .ESC. to
5f51: 20 65 78 69 74 ae         .BYTE $20,$65,$78,$69,$74,$ae          ;  exit.

5f57: 49 74 65 6d 20 a1  dat_5f59  .BYTE $49,$74,$65,$6d,$20,$a1       ; Item .
5f5d: 23 a0 2c 20               .BYTE $23,$a0,$2c,$20  ; #.,
5f61: a1 46 a0 6f 72 77 61 72   .BYTE $a1,$46,$a0,$6f,$72,$77,$61,$72  ; .F.orwar
5f69: 64 2c 20 a1 42 a0 61 63   .BYTE $64,$2c,$20,$a1,$42,$a0,$61,$63  ; d, .B.ac
5f71: 6b 2c 20 6f 72 20 a1 45   .BYTE $6b,$2c,$20,$6f,$72,$20,$a1,$45  ; k, or .E
5f79: 53 43 a0 20 74 6f 20 65   .BYTE $53,$43,$a0,$20,$74,$6f,$20,$65  ; SC. to e
5f81: 78 69 74 ae 57 65 61 72   .BYTE $78,$69,$74,$ae,$57,$65,$61,$72  ; xit.Wear
5f89: 20 69 6e 73 74 65 61 64   .BYTE $20,$69,$6e,$73,$74,$65,$61,$64  ;  instead
5f91: 20 6f 66 3a 00 a6 00 00   .BYTE $20,$6f,$66,$3a,$00,$a6,$00,$00  ;  of:....
5f99: a5 55 73 65 20 61 73 3a   .BYTE $a5,$55,$73,$65,$20,$61,$73,$3a  ; .Use as:
5fa1: 0d a6 0b 03 a1 31 a0 20   .BYTE $0d,$a6,$0b,$03,$a1,$31,$a0,$20  ; .....1.
5fa9: 50 72 69 6d 61 72 79 20   .BYTE $50,$72,$69,$6d,$61,$72,$79,$20  ; Primary
5fb1: 77 65 61 70 6f 6e a6 0b   .BYTE $77,$65,$61,$70,$6f,$6e,$a6,$0b  ; weapon..
5fb9: 04 a1 32 a0 20 53 65 63   .BYTE $04,$a1,$32,$a0,$20,$53,$65,$63  ; ..2. Sec
5fc1: 6f 6e 64 61 72 79 20 77   .BYTE $6f,$6e,$64,$61,$72,$79,$20,$77  ; ondary w
5fc9: 65 61 70 6f 6e a6 00 07   .BYTE $65,$61,$70,$6f,$6e,$a6,$00,$07  ; eapon...
5fd1: a5 50 72 65 73 73 20 6e   .BYTE $a5,$50,$72,$65,$73,$73,$20,$6e  ; .Press n
5fd9: 75 6d 62 65 72 20 6f 72   .BYTE $75,$6d,$62,$65,$72,$20,$6f,$72  ; umber or
5fe1: 20 45 53 43 20 74 6f 20   .BYTE $20,$45,$53,$43,$20,$74,$6f,$20  ;  ESC to
5fe9: 65 78 69 74 0d ff a6 00   .BYTE $65,$78,$69,$74,$0d,$ff,$a6,$00  ; exit....
5ff1: 01 a5 59 6f 75 72 20 73   .BYTE $01,$a5,$59,$6f,$75,$72,$20,$73  ; ..Your s
5ff9: 74 6f 6d 61 63 68 20 74   .BYTE $74,$6f,$6d,$61,$63,$68,$20,$74  ; tomach t
6001: 75 72 6e 73 20 61 74 0d   .BYTE $75,$72,$6e,$73,$20,$61,$74,$0d  ; urns at.
6009: a5 74 68 65 20 74 68 6f   .BYTE $a5,$74,$68,$65,$20,$74,$68,$6f  ; .the tho
6011: 75 67 68 74 20 6f 66 20   .BYTE $75,$67,$68,$74,$20,$6f,$66,$20  ; ught of
6019: 65 61 74 69 6e 67 20 61   .BYTE $65,$61,$74,$69,$6e,$67,$20,$61  ; eating a
6021: 6e 6f 74 68 65 72 20 62   .BYTE $6e,$6f,$74,$68,$65,$72,$20,$62  ; nother b
6029: 69 74 65 2e 0d 0d a5 54   .BYTE $69,$74,$65,$2e,$0d,$0d,$a5,$54  ; ite....T
6031: 68 65 20 70 61 63 6b 65   .BYTE $68,$65,$20,$70,$61,$63,$6b,$65  ; he packe
6039: 74 20 73 70 69 6c 6c 73   .BYTE $74,$20,$73,$70,$69,$6c,$6c,$73  ; t spills
6041: 20 6f 6e 74 6f 20 74 68   .BYTE $20,$6f,$6e,$74,$6f,$20,$74,$68  ;  onto th
6049: 65 20 67 72 6f 75 6e 64   .BYTE $65,$20,$67,$72,$6f,$75,$6e,$64  ; e ground
6051: 2e 0d ff 30 30 30 20 20   .BYTE $2e,$0d,$ff,$30,$30,$30,$20,$20  ; ...000
6059: 20 10 10 10 10 10 10 10   .BYTE $20,$10,$10,$10,$10,$10,$10,$10  ;  .......
6061: 10 10 10 a6 00 01 a5 59   .BYTE $10,$10,$10,$a6,$00,$01,$a5,$59  ; .......Y
6069: 6f 75 72 20 74 68 72 6f   .BYTE $6f,$75,$72,$20,$74,$68,$72,$6f  ; our thro
6071: 61 74 20 66 61 69 6c 73   .BYTE $61,$74,$20,$66,$61,$69,$6c,$73  ; at fails
6079: 20 74 6f 20 61 6c 6c 6f   .BYTE $20,$74,$6f,$20,$61,$6c,$6c,$6f  ;  to allo
6081: 77 20 61 6e 79 74 68 69   .BYTE $77,$20,$61,$6e,$79,$74,$68,$69  ; w anythi
6089: 6e 67 0d a5 6d 6f 72 65   .BYTE $6e,$67,$0d,$a5,$6d,$6f,$72,$65  ; ng..more
6091: 20 74 6f 20 65 6e 74 65   .BYTE $20,$74,$6f,$20,$65,$6e,$74,$65  ;  to ente
6099: 72 20 79 6f 75 72 20 61   .BYTE $72,$20,$79,$6f,$75,$72,$20,$61  ; r your a
60a1: 6c 72 65 61 64 79 20 66   .BYTE $6c,$72,$65,$61,$64,$79,$20,$66  ; lready f
60a9: 75 6c 6c 20 62 65 6c 6c   .BYTE $75,$6c,$6c,$20,$62,$65,$6c,$6c  ; ull bell
60b1: 79 2e 0d 0d a5 54 68 65   .BYTE $79,$2e,$0d,$0d,$a5,$54,$68,$65  ; y....The
60b9: 20 6c 69 71 75 69 64 20   .BYTE $20,$6c,$69,$71,$75,$69,$64,$20  ;  liquid
60c1: 73 6c 69 64 65 73 20 64   .BYTE $73,$6c,$69,$64,$65,$73,$20,$64  ; slides d
60c9: 6f 77 6e 20 79 6f 75 72   .BYTE $6f,$77,$6e,$20,$79,$6f,$75,$72  ; own your
60d1: 20 66 61 63 65 0d a5 74   .BYTE $20,$66,$61,$63,$65,$0d,$a5,$74  ;  face..t
60d9: 6f 20 74 68 65 20 67 72   .BYTE $6f,$20,$74,$68,$65,$20,$67,$72  ; o the gr
60e1: 6f 75 6e 64 2e 0d ff a8   .BYTE $6f,$75,$6e,$64,$2e,$0d,$ff,$a8  ; ound....
60e9: a6 00 02 a5 59 6f 75 20   .BYTE $a6,$00,$02,$a5,$59,$6f,$75,$20  ; ....You
60f1: 64 72 69 6e 6b 20 61 0d   .BYTE $64,$72,$69,$6e,$6b,$20,$61,$0d  ; drink a.
60f9: 0d a5 b4 3c 19 26 2e 0d   .BYTE $0d,$a5,$b4,$3c,$19,$26,$2e,$0d  ; ...<.&..
6101: ff a8 a6 00 03 a5 59 6f   .BYTE $ff,$a8,$a6,$00,$03,$a5,$59,$6f  ; ......Yo
6109: 75 20 6e 65 65 64 20 61   .BYTE $75,$20,$6e,$65,$65,$64,$20,$61  ; u need a
6111: 20 63 72 79 73 74 61 6c   .BYTE $20,$63,$72,$79,$73,$74,$61,$6c  ;  crystal
6119: 2e 0d ff 04 01 f0 00 00   .BYTE $2e,$0d,$ff,$04,$01,$f0,$00,$00  ; ........
6121: 00 00 01 02 80 01 00 08   .BYTE $00,$00,$01,$02,$80,$01,$00,$08  ; ........
6129: 8b 24 04 00 02 10 4c 69   .BYTE $8b,$24,$04,$00,$02,$10,$4c,$69  ; .$....Li
6131: 74 20 54 6f 72 63 68 00   .BYTE $74,$20,$54,$6f,$72,$63,$68,$00  ; t Torch.
6139: 00 ff 00 13 00 00 00 13   .BYTE $00,$ff,$00,$13,$00,$00,$00,$13  ; ........
6141: 00 00 00 00 00 00 04 01   .BYTE $00,$00,$00,$00,$00,$00,$04,$01  ; ........
6149: 16 16 82 03 a6 00 03      .BYTE $16,$16,$82,$03,$a6,$00,$03  ; .......
6150: a5        sub_6150        .BYTE $a5            ; .
6151: 59 6f 75 20 68 61 76 65   .BYTE $59,$6f,$75,$20,$68,$61,$76,$65  ; You have
6159: 20 6e 6f 6e 65 2e 0d ff   .BYTE $20,$6e,$6f,$6e,$65,$2e,$0d,$ff  ;  none...
6161: a6 00                     .BYTE $a6,$00        ; ..
6163: 02 a5 49 74 20 69  sub_6163  .BYTE $02,$a5,$49,$74,$20,$69  ; ..It i
6169: 73 20 b2 09               .BYTE $73,$20,$b2,$09  ; s ..
616d: 63 02 20  sub_616d        .BYTE $63,$02,$20    ; c.
6170: 6d        sub_6170        .BYTE $6d            ; m
6171: 69 6e 75 74 65 73 20 0d   .BYTE $69,$6e,$75,$74,$65,$73,$20,$0d  ; inutes .
6179: a5 70 61 73 74 20 74 68   .BYTE $a5,$70,$61,$73,$74,$20,$74,$68  ; .past th
6181: 65 20 b2 0a 63 02 74 68   .BYTE $65,$20,$b2,$0a,$63,$02,$74,$68  ; e ..c.th
6189: 20 68 6f 75 72 2e 0d ff   .BYTE $20,$68,$6f,$75,$72,$2e,$0d,$ff  ;  hour...

6191: 74 68 73 74 6e 64 72 64   .BYTE $74,$68,$73,$74,$6e,$64,$72,$64  ; thstndrd
6199: 74 68 74 68 74 68 74 68   .BYTE $74,$68,$74,$68,$74,$68,$74,$68  ; thththth
61a1: 74 68 74 68 74 68 74 68   .BYTE $74,$68,$74,$68,$74,$68,$74,$68  ; thththth
61a9: 74 68 74 68 74 68 74 68   .BYTE $74,$68,$74,$68,$74,$68,$74,$68  ; thththth
61b1: 74 68 74 68 74 68 74 68   .BYTE $74,$68,$74,$68,$74,$68,$74,$68  ; thththth
61b9: 74 68 73 74 6e 64 72 64   .BYTE $74,$68,$73,$74,$6e,$64,$72,$64  ; thstndrd
61c1: a6 00 04 a5 59 6f 75 20   .BYTE $a6,$00,$04,$a5,$59,$6f,$75,$20  ; ....You
61c9: 61 72 65 20 63 61 72 72   .BYTE $61,$72,$65,$20,$63,$61,$72,$72  ; are carr
61d1: 79 69 6e 67 20 74 6f 6f   .BYTE $79,$69,$6e,$67,$20,$74,$6f,$6f  ; ying too
61d9: 20 6d 75 63 68 21 0d ff   .BYTE $20,$6d,$75,$63,$68,$21,$0d,$ff  ;  much!..

61e1: a8 a6 00 02 a5 59 6f 75   .BYTE $a8,$a6,$00,$02,$a5,$59,$6f,$75  ; .....You
61e9: 20 63 61 73 74 20 74 68   .BYTE $20,$63,$61,$73,$74,$20,$74,$68  ;  cast th
61f1: 65 20 73 70 65 6c 6c 20   .BYTE $65,$20,$73,$70,$65,$6c,$6c,$20  ; e spell
61f9: 6f 66 0d 0d a5 a1 7f a0   .BYTE $6f,$66,$0d,$0d,$a5,$a1,$7f,$a0  ; of.....
6201: 20 b4 3c 19 1e 2e 20 a1   .BYTE $20,$b4,$3c,$19,$1e,$2e,$20,$a1  ;  .<... .
6209: 7f a0 0d ff               .BYTE $7f,$a0,$0d,$ff                  ; ...

620d: a6 00 03 a5 54 68 65 20  str_SPEL_FAIL  .BYTE $a6,$00,$03,$a5,$54,$68,$65,$20  ; ....The
6215: 73 70 65 6c 6c 20 66 61   .BYTE $73,$70,$65,$6c,$6c,$20,$66,$61  ; spell fa
621d: 69 6c 65 64 21 0d ff      .BYTE $69,$6c,$65,$64,$21,$0d,$ff      ; iled!..

6224: a6 00 02 a3 e8           str_SPEL_BKFR  .BYTE $a6,$00,$02,$a3,$e8  ; .....
6229: 59 a5 54 68 65 20 73 70   .BYTE $59,$a5,$54,$68,$65,$20,$73,$70  ; Y.The sp
6231: 65 6c 6c 20 66 61 69 6c   .BYTE $65,$6c,$6c,$20,$66,$61,$69,$6c  ; ell fail
6239: 65 64 0d 0d a5 61 6e 64   .BYTE $65,$64,$0d,$0d,$a5,$61,$6e,$64  ; ed...and
6241: 20 62 61 63 6b 66 69 72   .BYTE $20,$62,$61,$63,$6b,$66,$69,$72  ;  backfir
6249: 65 64 20 66 6f 72 20 b2   .BYTE $65,$64,$20,$66,$6f,$72,$20,$b2  ; ed for .
6251: 82 62 02 21 0d a3 e5 59   .BYTE $82,$62,$02,$21,$0d,$a3,$e5,$59  ; .b.!...Y
6259: ff                        .BYTE $ff                              ; .

625a: a6 00 03 a5 53 6f 6d 65   .BYTE $a6,$00,$03,$a5,$53,$6f,$6d,$65  ; ....Some
6262: 74 68 69 6e 67 20 69 73   .BYTE $74,$68,$69,$6e,$67,$20,$69,$73  ; thing is
626a: 20 6f 64 64 20 68 65 72   .BYTE $20,$6f,$64,$64,$20,$68,$65,$72  ;  odd her
6272: 65 2e 0d ff               .BYTE $65,$2e,$0d,$ff                  ; e...

6276: 00 00 00 00 00 00 00 00   .BYTE $00,$00,$00,$00,$00,$00,$00,$00  ; ........
627e: 00 00 00 00 00 00 00 00   .BYTE $00,$00,$00,$00,$00,$00,$00,$00  ; ........
6286: 00 00 00                  .BYTE $00,$00,$00  ; ...
6289: 00 00 00 20 00 20 00 00   .BYTE $00,$00,$00,$20,$00,$20,$00,$00  ; ... . ..
6291: 00 3f 3f 1f 1f 1f 0f 07   .BYTE $00,$3f,$3f,$1f,$1f,$1f,$0f,$07  ; .??.....
6299: a6 00 02 a5 59 6f 75 20   .BYTE $a6,$00,$02,$a5,$59,$6f,$75,$20  ; ....You
62a1: 61 72 65 20 b2 8a 62 02   .BYTE $61,$72,$65,$20,$b2,$8a,$62,$02  ; are ..b.
62a9: 20 73 71 75 61 72 65 73   .BYTE $20,$73,$71,$75,$61,$72,$65,$73  ;  squares
62b1: 20 4e 6f 72 74 68 0d a5   .BYTE $20,$4e,$6f,$72,$74,$68,$0d,$a5  ;  North..
62b9: 61 6e 64 20 b2 89 62 02   .BYTE $61,$6e,$64,$20,$b2,$89,$62,$02  ; and ..b.
62c1: 20 73 71 75 61 72 65 73   .BYTE $20,$73,$71,$75,$61,$72,$65,$73  ;  squares
62c9: 20 45 61 73 74 20 66 72   .BYTE $20,$45,$61,$73,$74,$20,$66,$72  ;  East fr
62d1: 6f 6d 20 74 68 65 20 53   .BYTE $6f,$6d,$20,$74,$68,$65,$20,$53  ; om the S
62d9: 6f 75 74 68 77 65 73 74   .BYTE $6f,$75,$74,$68,$77,$65,$73,$74  ; outhwest
62e1: 0d a5 63 6f 72 6e 65 72   .BYTE $0d,$a5,$63,$6f,$72,$6e,$65,$72  ; ..corner
62e9: 20 6f 66 20 6c 65 76 65   .BYTE $20,$6f,$66,$20,$6c,$65,$76,$65  ;  of leve
62f1: 6c 20 b2 1d 63 01 2e 0d   .BYTE $6c,$20,$b2,$1d,$63,$01,$2e,$0d  ; l ..c...
62f9: ff 4d 53 47 7c 19 87      .BYTE $ff,$4d,$53,$47,$7c,$19,$87  ; .MSG|..